ARM GAS  C:\Users\26927\AppData\Local\Temp\ccUM3HPI.s 			page 1


   1              		.cpu cortex-m3
   2              		.arch armv7-m
   3              		.fpu softvfp
   4              		.eabi_attribute 20, 1
   5              		.eabi_attribute 21, 1
   6              		.eabi_attribute 23, 3
   7              		.eabi_attribute 24, 1
   8              		.eabi_attribute 25, 1
   9              		.eabi_attribute 26, 1
  10              		.eabi_attribute 30, 1
  11              		.eabi_attribute 34, 1
  12              		.eabi_attribute 18, 4
  13              		.file	"driver_led.c"
  14              		.text
  15              	.Ltext0:
  16              		.cfi_sections	.debug_frame
  17              		.section	.text.Led_Init,"ax",%progbits
  18              		.align	1
  19              		.global	Led_Init
  20              		.syntax unified
  21              		.thumb
  22              		.thumb_func
  24              	Led_Init:
  25              	.LFB65:
  26              		.file 1 "Drivers/My_Drivers/src/driver_led.c"
   1:Drivers/My_Drivers/src/driver_led.c **** // SPDX-License-Identifier: GPL-3.0-only
   2:Drivers/My_Drivers/src/driver_led.c **** /*
   3:Drivers/My_Drivers/src/driver_led.c ****  * Copyright (c) 2008-2023 100askTeam : Dongshan WEI <weidongshan@qq.com> 
   4:Drivers/My_Drivers/src/driver_led.c ****  * Discourse:  https://forums.100ask.net
   5:Drivers/My_Drivers/src/driver_led.c ****  */
   6:Drivers/My_Drivers/src/driver_led.c **** 
   7:Drivers/My_Drivers/src/driver_led.c ****  
   8:Drivers/My_Drivers/src/driver_led.c **** /*  Copyright (C) 2008-2023 æ·±åœ³ç™¾é—®ç½‘ç§‘æŠ€æœ‰é™å…¬å¸
   9:Drivers/My_Drivers/src/driver_led.c ****  *  All rights reserved
  10:Drivers/My_Drivers/src/driver_led.c ****  *
  11:Drivers/My_Drivers/src/driver_led.c ****  *
  12:Drivers/My_Drivers/src/driver_led.c ****  * å…è´£å£°æ˜: ç™¾é—®ç½‘ç¼–å†™çš„æ–‡æ¡£ï¼Œä»…ä¾›å­¦å‘˜å­¦ä¹ ä½¿ç”¨ï¼Œå¯ä»¥è½¬å‘æˆ–å¼•ç”¨(è¯·ä¿
  13:Drivers/My_Drivers/src/driver_led.c ****  * å…è´£å£°æ˜: ç™¾é—®ç½‘ç¼–å†™çš„ç¨‹åºï¼Œå¯ä»¥ç”¨äºå•†ä¸šç”¨é€”ï¼Œä½†ç™¾é—®ç½‘ä¸æ‰¿æ‹…ä»»ä½•å
  14:Drivers/My_Drivers/src/driver_led.c ****  * 
  15:Drivers/My_Drivers/src/driver_led.c ****  * æ‘˜è¦ï¼š
  16:Drivers/My_Drivers/src/driver_led.c ****  *			æœ¬ç¨‹åºéµå¾ªGPL V3åè®®ï¼Œä½¿ç”¨è¯·éµå¾ªåè®®è®¸å¯
  17:Drivers/My_Drivers/src/driver_led.c ****  *			æœ¬ç¨‹åºæ‰€ç”¨çš„å¼€å‘æ¿ï¼š	DShanMCU-F103
  18:Drivers/My_Drivers/src/driver_led.c ****  *			ç™¾é—®ç½‘åµŒå…¥å¼å­¦ä¹ å¹³å°ï¼šhttps://www.100ask.net
  19:Drivers/My_Drivers/src/driver_led.c ****  *			ç™¾é—®ç½‘æŠ€æœ¯äº¤æµç¤¾åŒºï¼š	https://forums.100ask.net
  20:Drivers/My_Drivers/src/driver_led.c ****  *			ç™¾é—®ç½‘å®˜æ–¹Bç«™ï¼š				https://space.bilibili.com/275908810
  21:Drivers/My_Drivers/src/driver_led.c ****  *			ç™¾é—®ç½‘å®˜æ–¹æ·˜å®ï¼š			https://100ask.taobao.com
  22:Drivers/My_Drivers/src/driver_led.c ****  *			è”ç³»æˆ‘ä»¬(E-mail)ï¼š	  weidongshan@qq.com
  23:Drivers/My_Drivers/src/driver_led.c ****  *
  24:Drivers/My_Drivers/src/driver_led.c ****  *			ç‰ˆæƒæ‰€æœ‰ï¼Œç›—ç‰ˆå¿…ç©¶ã€‚
  25:Drivers/My_Drivers/src/driver_led.c ****  *  
  26:Drivers/My_Drivers/src/driver_led.c ****  * ä¿®æ”¹å†å²     ç‰ˆæœ¬å·           ä½œè€…        ä¿®æ”¹å†…å®¹
  27:Drivers/My_Drivers/src/driver_led.c ****  *-----------------------------------------------------
  28:Drivers/My_Drivers/src/driver_led.c ****  * 2023.08.04      v01         ç™¾é—®ç§‘æŠ€      åˆ›å»ºæ–‡ä»¶
  29:Drivers/My_Drivers/src/driver_led.c ****  *-----------------------------------------------------
  30:Drivers/My_Drivers/src/driver_led.c **** */
  31:Drivers/My_Drivers/src/driver_led.c **** 
  32:Drivers/My_Drivers/src/driver_led.c **** 
ARM GAS  C:\Users\26927\AppData\Local\Temp\ccUM3HPI.s 			page 2


  33:Drivers/My_Drivers/src/driver_led.c **** 
  34:Drivers/My_Drivers/src/driver_led.c **** #include "driver_led.h"
  35:Drivers/My_Drivers/src/driver_led.c **** #include "driver_timer.h"
  36:Drivers/My_Drivers/src/driver_led.c **** 
  37:Drivers/My_Drivers/src/driver_led.c **** #include "gpio.h"
  38:Drivers/My_Drivers/src/driver_led.c **** 
  39:Drivers/My_Drivers/src/driver_led.c **** /**********************************************************************
  40:Drivers/My_Drivers/src/driver_led.c ****  * å‡½æ•°åç§°ï¼š Led_Init
  41:Drivers/My_Drivers/src/driver_led.c ****  * åŠŸèƒ½æè¿°ï¼š LEDåˆå§‹åŒ–å‡½æ•°, åœ¨HALçš„åˆå§‹åŒ–ä»£ç é‡Œå·²ç»é…ç½®å¥½äº†GPIOå¼•è„š, 
  42:Drivers/My_Drivers/src/driver_led.c ****  *            æ‰€ä»¥æœ¬å‡½æ•°å¯ä»¥å†™ä¸ºç©º
  43:Drivers/My_Drivers/src/driver_led.c ****  *            ä½†æ˜¯ä¸ºäº†ä¸ä¾èµ–äºstm32cubemx, æ­¤å‡½æ•°ä¹Ÿå®ç°äº†GPIOçš„é…ç½®
  44:Drivers/My_Drivers/src/driver_led.c ****  * è¾“å…¥å‚æ•°ï¼š æ— 
  45:Drivers/My_Drivers/src/driver_led.c ****  * è¾“å‡ºå‚æ•°ï¼š æ— 
  46:Drivers/My_Drivers/src/driver_led.c ****  * è¿” å› å€¼ï¼š 0 - æˆåŠŸ, å…¶ä»–å€¼ - å¤±è´¥
  47:Drivers/My_Drivers/src/driver_led.c ****  * ä¿®æ”¹æ—¥æœŸ        ç‰ˆæœ¬å·     ä¿®æ”¹äºº	      ä¿®æ”¹å†…å®¹
  48:Drivers/My_Drivers/src/driver_led.c ****  * -----------------------------------------------
  49:Drivers/My_Drivers/src/driver_led.c ****  * 2023/08/03	     V1.0	  éŸ¦ä¸œå±±	      åˆ›å»º
  50:Drivers/My_Drivers/src/driver_led.c ****  ***********************************************************************/
  51:Drivers/My_Drivers/src/driver_led.c **** int Led_Init(void)
  52:Drivers/My_Drivers/src/driver_led.c **** {
  27              		.loc 1 52 1 view -0
  28              		.cfi_startproc
  29              		@ args = 0, pretend = 0, frame = 24
  30              		@ frame_needed = 0, uses_anonymous_args = 0
  31 0000 30B5     		push	{r4, r5, lr}
  32              	.LCFI0:
  33              		.cfi_def_cfa_offset 12
  34              		.cfi_offset 4, -12
  35              		.cfi_offset 5, -8
  36              		.cfi_offset 14, -4
  37 0002 87B0     		sub	sp, sp, #28
  38              	.LCFI1:
  39              		.cfi_def_cfa_offset 40
  53:Drivers/My_Drivers/src/driver_led.c ****     GPIO_InitTypeDef GPIO_InitStruct = {0};
  40              		.loc 1 53 5 view .LVU1
  41              		.loc 1 53 22 is_stmt 0 view .LVU2
  42 0004 0024     		movs	r4, #0
  43 0006 0294     		str	r4, [sp, #8]
  44 0008 0394     		str	r4, [sp, #12]
  45 000a 0494     		str	r4, [sp, #16]
  46 000c 0594     		str	r4, [sp, #20]
  54:Drivers/My_Drivers/src/driver_led.c ****     
  55:Drivers/My_Drivers/src/driver_led.c ****     /* GPIO Ports Clock Enable */
  56:Drivers/My_Drivers/src/driver_led.c ****     __HAL_RCC_GPIOC_CLK_ENABLE();
  47              		.loc 1 56 5 is_stmt 1 view .LVU3
  48              	.LBB2:
  49              		.loc 1 56 5 view .LVU4
  50              		.loc 1 56 5 view .LVU5
  51 000e 104B     		ldr	r3, .L3
  52 0010 9A69     		ldr	r2, [r3, #24]
  53 0012 42F01002 		orr	r2, r2, #16
  54 0016 9A61     		str	r2, [r3, #24]
  55              		.loc 1 56 5 view .LVU6
  56 0018 9B69     		ldr	r3, [r3, #24]
  57 001a 03F01003 		and	r3, r3, #16
  58 001e 0193     		str	r3, [sp, #4]
  59              		.loc 1 56 5 view .LVU7
ARM GAS  C:\Users\26927\AppData\Local\Temp\ccUM3HPI.s 			page 3


  60 0020 019B     		ldr	r3, [sp, #4]
  61              	.LBE2:
  62              		.loc 1 56 5 view .LVU8
  57:Drivers/My_Drivers/src/driver_led.c **** 
  58:Drivers/My_Drivers/src/driver_led.c ****     /*Configure GPIO pin Output Level */
  59:Drivers/My_Drivers/src/driver_led.c ****     HAL_GPIO_WritePin(GPIOC, GPIO_PIN_13, GPIO_PIN_RESET);
  63              		.loc 1 59 5 view .LVU9
  64 0022 0C4D     		ldr	r5, .L3+4
  65 0024 2246     		mov	r2, r4
  66 0026 4FF40051 		mov	r1, #8192
  67 002a 2846     		mov	r0, r5
  68 002c FFF7FEFF 		bl	HAL_GPIO_WritePin
  69              	.LVL0:
  60:Drivers/My_Drivers/src/driver_led.c **** 
  61:Drivers/My_Drivers/src/driver_led.c ****     /*Configure GPIO pin : PC13 */
  62:Drivers/My_Drivers/src/driver_led.c ****     GPIO_InitStruct.Pin = GPIO_PIN_13;
  70              		.loc 1 62 5 view .LVU10
  71              		.loc 1 62 25 is_stmt 0 view .LVU11
  72 0030 4FF40053 		mov	r3, #8192
  73 0034 0293     		str	r3, [sp, #8]
  63:Drivers/My_Drivers/src/driver_led.c ****     GPIO_InitStruct.Mode = GPIO_MODE_OUTPUT_PP;
  74              		.loc 1 63 5 is_stmt 1 view .LVU12
  75              		.loc 1 63 26 is_stmt 0 view .LVU13
  76 0036 0123     		movs	r3, #1
  77 0038 0393     		str	r3, [sp, #12]
  64:Drivers/My_Drivers/src/driver_led.c ****     GPIO_InitStruct.Pull = GPIO_NOPULL;
  78              		.loc 1 64 5 is_stmt 1 view .LVU14
  79              		.loc 1 64 26 is_stmt 0 view .LVU15
  80 003a 0494     		str	r4, [sp, #16]
  65:Drivers/My_Drivers/src/driver_led.c ****     GPIO_InitStruct.Speed = GPIO_SPEED_FREQ_LOW;
  81              		.loc 1 65 5 is_stmt 1 view .LVU16
  82              		.loc 1 65 27 is_stmt 0 view .LVU17
  83 003c 0223     		movs	r3, #2
  84 003e 0593     		str	r3, [sp, #20]
  66:Drivers/My_Drivers/src/driver_led.c ****     HAL_GPIO_Init(GPIOC, &GPIO_InitStruct);
  85              		.loc 1 66 5 is_stmt 1 view .LVU18
  86 0040 02A9     		add	r1, sp, #8
  87 0042 2846     		mov	r0, r5
  88 0044 FFF7FEFF 		bl	HAL_GPIO_Init
  89              	.LVL1:
  67:Drivers/My_Drivers/src/driver_led.c ****     
  68:Drivers/My_Drivers/src/driver_led.c ****     return 0;
  90              		.loc 1 68 5 view .LVU19
  69:Drivers/My_Drivers/src/driver_led.c **** }
  91              		.loc 1 69 1 is_stmt 0 view .LVU20
  92 0048 2046     		mov	r0, r4
  93 004a 07B0     		add	sp, sp, #28
  94              	.LCFI2:
  95              		.cfi_def_cfa_offset 12
  96              		@ sp needed
  97 004c 30BD     		pop	{r4, r5, pc}
  98              	.L4:
  99 004e 00BF     		.align	2
 100              	.L3:
 101 0050 00100240 		.word	1073876992
 102 0054 00100140 		.word	1073811456
 103              		.cfi_endproc
ARM GAS  C:\Users\26927\AppData\Local\Temp\ccUM3HPI.s 			page 4


 104              	.LFE65:
 106              		.section	.text.Led_Control,"ax",%progbits
 107              		.align	1
 108              		.global	Led_Control
 109              		.syntax unified
 110              		.thumb
 111              		.thumb_func
 113              	Led_Control:
 114              	.LVL2:
 115              	.LFB66:
  70:Drivers/My_Drivers/src/driver_led.c **** 
  71:Drivers/My_Drivers/src/driver_led.c **** /**********************************************************************
  72:Drivers/My_Drivers/src/driver_led.c ****  * å‡½æ•°åç§°ï¼š Led_Control
  73:Drivers/My_Drivers/src/driver_led.c ****  * åŠŸèƒ½æè¿°ï¼š LEDæ§åˆ¶å‡½æ•°
  74:Drivers/My_Drivers/src/driver_led.c ****  * è¾“å…¥å‚æ•°ï¼š which-å“ªä¸ªLED, åœ¨driver_led.hé‡Œå®šä¹‰, æ¯”å¦‚LED_GREEN
  75:Drivers/My_Drivers/src/driver_led.c ****  *            on-çŠ¶æ€, 1-äº®, 0-ç­
  76:Drivers/My_Drivers/src/driver_led.c ****  * è¾“å‡ºå‚æ•°ï¼š æ— 
  77:Drivers/My_Drivers/src/driver_led.c ****  * è¿” å› å€¼ï¼š 0 - æˆåŠŸ, å…¶ä»–å€¼ - å¤±è´¥
  78:Drivers/My_Drivers/src/driver_led.c ****  * ä¿®æ”¹æ—¥æœŸ        ç‰ˆæœ¬å·     ä¿®æ”¹äºº	      ä¿®æ”¹å†…å®¹
  79:Drivers/My_Drivers/src/driver_led.c ****  * -----------------------------------------------
  80:Drivers/My_Drivers/src/driver_led.c ****  * 2023/08/03	     V1.0	  éŸ¦ä¸œå±±	      åˆ›å»º
  81:Drivers/My_Drivers/src/driver_led.c ****  ***********************************************************************/
  82:Drivers/My_Drivers/src/driver_led.c **** int Led_Control(int which, int on)
  83:Drivers/My_Drivers/src/driver_led.c **** {
 116              		.loc 1 83 1 is_stmt 1 view -0
 117              		.cfi_startproc
 118              		@ args = 0, pretend = 0, frame = 0
 119              		@ frame_needed = 0, uses_anonymous_args = 0
 120              		.loc 1 83 1 is_stmt 0 view .LVU22
 121 0000 08B5     		push	{r3, lr}
 122              	.LCFI3:
 123              		.cfi_def_cfa_offset 8
 124              		.cfi_offset 3, -8
 125              		.cfi_offset 14, -4
  84:Drivers/My_Drivers/src/driver_led.c ****     if (on)
 126              		.loc 1 84 5 is_stmt 1 view .LVU23
 127              		.loc 1 84 8 is_stmt 0 view .LVU24
 128 0002 39B1     		cbz	r1, .L6
  85:Drivers/My_Drivers/src/driver_led.c ****         HAL_GPIO_WritePin(GPIOC, GPIO_PIN_13, GPIO_PIN_RESET);
 129              		.loc 1 85 9 is_stmt 1 view .LVU25
 130 0004 0022     		movs	r2, #0
 131 0006 4FF40051 		mov	r1, #8192
 132              	.LVL3:
 133              		.loc 1 85 9 is_stmt 0 view .LVU26
 134 000a 0648     		ldr	r0, .L9
 135              	.LVL4:
 136              		.loc 1 85 9 view .LVU27
 137 000c FFF7FEFF 		bl	HAL_GPIO_WritePin
 138              	.LVL5:
 139              	.L7:
  86:Drivers/My_Drivers/src/driver_led.c ****     else
  87:Drivers/My_Drivers/src/driver_led.c ****         HAL_GPIO_WritePin(GPIOC, GPIO_PIN_13, GPIO_PIN_SET);
  88:Drivers/My_Drivers/src/driver_led.c ****     return 0;
 140              		.loc 1 88 5 is_stmt 1 view .LVU28
  89:Drivers/My_Drivers/src/driver_led.c **** }
 141              		.loc 1 89 1 is_stmt 0 view .LVU29
 142 0010 0020     		movs	r0, #0
ARM GAS  C:\Users\26927\AppData\Local\Temp\ccUM3HPI.s 			page 5


 143 0012 08BD     		pop	{r3, pc}
 144              	.LVL6:
 145              	.L6:
  87:Drivers/My_Drivers/src/driver_led.c ****     return 0;
 146              		.loc 1 87 9 is_stmt 1 view .LVU30
 147 0014 0122     		movs	r2, #1
 148 0016 4FF40051 		mov	r1, #8192
 149              	.LVL7:
  87:Drivers/My_Drivers/src/driver_led.c ****     return 0;
 150              		.loc 1 87 9 is_stmt 0 view .LVU31
 151 001a 0248     		ldr	r0, .L9
 152              	.LVL8:
  87:Drivers/My_Drivers/src/driver_led.c ****     return 0;
 153              		.loc 1 87 9 view .LVU32
 154 001c FFF7FEFF 		bl	HAL_GPIO_WritePin
 155              	.LVL9:
 156 0020 F6E7     		b	.L7
 157              	.L10:
 158 0022 00BF     		.align	2
 159              	.L9:
 160 0024 00100140 		.word	1073811456
 161              		.cfi_endproc
 162              	.LFE66:
 164              		.section	.text.Led_Test,"ax",%progbits
 165              		.align	1
 166              		.global	Led_Test
 167              		.syntax unified
 168              		.thumb
 169              		.thumb_func
 171              	Led_Test:
 172              	.LFB67:
  90:Drivers/My_Drivers/src/driver_led.c **** 
  91:Drivers/My_Drivers/src/driver_led.c **** /**********************************************************************
  92:Drivers/My_Drivers/src/driver_led.c ****  * å‡½æ•°åç§°ï¼š Led_Test
  93:Drivers/My_Drivers/src/driver_led.c ****  * åŠŸèƒ½æè¿°ï¼š Ledæµ‹è¯•ç¨‹åº
  94:Drivers/My_Drivers/src/driver_led.c ****  * è¾“å…¥å‚æ•°ï¼š æ— 
  95:Drivers/My_Drivers/src/driver_led.c ****  * è¾“å‡ºå‚æ•°ï¼š æ— 
  96:Drivers/My_Drivers/src/driver_led.c ****  *            æ— 
  97:Drivers/My_Drivers/src/driver_led.c ****  * è¿” å› å€¼ï¼š 0 - æˆåŠŸ, å…¶ä»–å€¼ - å¤±è´¥
  98:Drivers/My_Drivers/src/driver_led.c ****  * ä¿®æ”¹æ—¥æœŸ        ç‰ˆæœ¬å·     ä¿®æ”¹äºº        ä¿®æ”¹å†…å®¹
  99:Drivers/My_Drivers/src/driver_led.c ****  * -----------------------------------------------
 100:Drivers/My_Drivers/src/driver_led.c ****  * 2023/08/03        V1.0     éŸ¦ä¸œå±±       åˆ›å»º
 101:Drivers/My_Drivers/src/driver_led.c ****  ***********************************************************************/
 102:Drivers/My_Drivers/src/driver_led.c **** void Led_Test(void)
 103:Drivers/My_Drivers/src/driver_led.c **** {
 173              		.loc 1 103 1 is_stmt 1 view -0
 174              		.cfi_startproc
 175              		@ Volatile: function does not return.
 176              		@ args = 0, pretend = 0, frame = 0
 177              		@ frame_needed = 0, uses_anonymous_args = 0
 178 0000 08B5     		push	{r3, lr}
 179              	.LCFI4:
 180              		.cfi_def_cfa_offset 8
 181              		.cfi_offset 3, -8
 182              		.cfi_offset 14, -4
 183              	.L12:
 104:Drivers/My_Drivers/src/driver_led.c ****     //Led_Init();
ARM GAS  C:\Users\26927\AppData\Local\Temp\ccUM3HPI.s 			page 6


 105:Drivers/My_Drivers/src/driver_led.c **** 
 106:Drivers/My_Drivers/src/driver_led.c ****     while (1)
 184              		.loc 1 106 5 discriminator 1 view .LVU34
 185              	.LBB3:
 107:Drivers/My_Drivers/src/driver_led.c ****     {
 108:Drivers/My_Drivers/src/driver_led.c ****         Led_Control(LED_GREEN, 1);
 186              		.loc 1 108 9 discriminator 1 view .LVU35
 187 0002 0121     		movs	r1, #1
 188 0004 0846     		mov	r0, r1
 189 0006 FFF7FEFF 		bl	Led_Control
 190              	.LVL10:
 109:Drivers/My_Drivers/src/driver_led.c ****         vTaskDelay(500);
 191              		.loc 1 109 9 discriminator 1 view .LVU36
 192 000a 4FF4FA70 		mov	r0, #500
 193 000e FFF7FEFF 		bl	vTaskDelay
 194              	.LVL11:
 110:Drivers/My_Drivers/src/driver_led.c **** 
 111:Drivers/My_Drivers/src/driver_led.c ****         Led_Control(LED_GREEN, 0);
 195              		.loc 1 111 9 discriminator 1 view .LVU37
 196 0012 0021     		movs	r1, #0
 197 0014 0120     		movs	r0, #1
 198 0016 FFF7FEFF 		bl	Led_Control
 199              	.LVL12:
 112:Drivers/My_Drivers/src/driver_led.c ****         mdelay(500);
 200              		.loc 1 112 9 discriminator 1 view .LVU38
 201 001a 4FF4FA70 		mov	r0, #500
 202 001e FFF7FEFF 		bl	mdelay
 203              	.LVL13:
 204              	.LBE3:
 106:Drivers/My_Drivers/src/driver_led.c ****     {
 205              		.loc 1 106 11 discriminator 1 view .LVU39
 206 0022 EEE7     		b	.L12
 207              		.cfi_endproc
 208              	.LFE67:
 210              		.text
 211              	.Letext0:
 212              		.file 2 "d:\\soft\\gcc_arm\\gcc-arm-none-eabi-10.3-2021.10\\arm-none-eabi\\include\\machine\\_defa
 213              		.file 3 "d:\\soft\\gcc_arm\\gcc-arm-none-eabi-10.3-2021.10\\arm-none-eabi\\include\\sys\\_stdint.h
 214              		.file 4 "Drivers/CMSIS/Device/ST/STM32F1xx/Include/stm32f103xb.h"
 215              		.file 5 "Drivers/STM32F1xx_HAL_Driver/Inc/stm32f1xx_hal_gpio.h"
 216              		.file 6 "Drivers/My_Drivers\\Include/driver_timer.h"
ARM GAS  C:\Users\26927\AppData\Local\Temp\ccUM3HPI.s 			page 7

