ARM GAS  C:\Users\26927\AppData\Local\Temp\cck5sGic.s 			page 1


   1              		.cpu cortex-m3
   2              		.arch armv7-m
   3              		.fpu softvfp
   4              		.eabi_attribute 20, 1
   5              		.eabi_attribute 21, 1
   6              		.eabi_attribute 23, 3
   7              		.eabi_attribute 24, 1
   8              		.eabi_attribute 25, 1
   9              		.eabi_attribute 26, 1
  10              		.eabi_attribute 30, 1
  11              		.eabi_attribute 34, 1
  12              		.eabi_attribute 18, 4
  13              		.file	"driver_oled.c"
  14              		.text
  15              	.Ltext0:
  16              		.cfi_sections	.debug_frame
  17              		.section	.text.OLED_W_SCL,"ax",%progbits
  18              		.align	1
  19              		.global	OLED_W_SCL
  20              		.syntax unified
  21              		.thumb
  22              		.thumb_func
  24              	OLED_W_SCL:
  25              	.LVL0:
  26              	.LFB65:
  27              		.file 1 "Drivers/My_Drivers/src/driver_oled.c"
   1:Drivers/My_Drivers/src/driver_oled.c **** #include "gpio.h"
   2:Drivers/My_Drivers/src/driver_oled.c **** #include "driver_oled.h"
   3:Drivers/My_Drivers/src/driver_oled.c **** #include "driver_oled_font.h"
   4:Drivers/My_Drivers/src/driver_oled.c **** 
   5:Drivers/My_Drivers/src/driver_oled.c **** /*引脚配置*/
   6:Drivers/My_Drivers/src/driver_oled.c **** //#define OLED_W_SCL(x)		GPIO_WriteBit(GPIOB, GPIO_Pin_8, (BitAction)(x))
   7:Drivers/My_Drivers/src/driver_oled.c **** //#define OLED_W_SDA(x)		GPIO_WriteBit(GPIOB, GPIO_Pin_9, (BitAction)(x))
   8:Drivers/My_Drivers/src/driver_oled.c **** void OLED_W_SCL(GPIO_PinState x){
  28              		.loc 1 8 33 view -0
  29              		.cfi_startproc
  30              		@ args = 0, pretend = 0, frame = 0
  31              		@ frame_needed = 0, uses_anonymous_args = 0
  32              		.loc 1 8 33 is_stmt 0 view .LVU1
  33 0000 08B5     		push	{r3, lr}
  34              	.LCFI0:
  35              		.cfi_def_cfa_offset 8
  36              		.cfi_offset 3, -8
  37              		.cfi_offset 14, -4
  38 0002 0246     		mov	r2, r0
   9:Drivers/My_Drivers/src/driver_oled.c **** 	HAL_GPIO_WritePin(GPIOB, GPIO_PIN_8,x);
  39              		.loc 1 9 2 is_stmt 1 view .LVU2
  40 0004 4FF48071 		mov	r1, #256
  41 0008 0148     		ldr	r0, .L3
  42              	.LVL1:
  43              		.loc 1 9 2 is_stmt 0 view .LVU3
  44 000a FFF7FEFF 		bl	HAL_GPIO_WritePin
  45              	.LVL2:
  10:Drivers/My_Drivers/src/driver_oled.c **** }
  46              		.loc 1 10 1 view .LVU4
  47 000e 08BD     		pop	{r3, pc}
  48              	.L4:
ARM GAS  C:\Users\26927\AppData\Local\Temp\cck5sGic.s 			page 2


  49              		.align	2
  50              	.L3:
  51 0010 000C0140 		.word	1073810432
  52              		.cfi_endproc
  53              	.LFE65:
  55              		.section	.text.OLED_W_SDA,"ax",%progbits
  56              		.align	1
  57              		.global	OLED_W_SDA
  58              		.syntax unified
  59              		.thumb
  60              		.thumb_func
  62              	OLED_W_SDA:
  63              	.LVL3:
  64              	.LFB66:
  11:Drivers/My_Drivers/src/driver_oled.c **** void OLED_W_SDA(GPIO_PinState x){
  65              		.loc 1 11 33 is_stmt 1 view -0
  66              		.cfi_startproc
  67              		@ args = 0, pretend = 0, frame = 0
  68              		@ frame_needed = 0, uses_anonymous_args = 0
  69              		.loc 1 11 33 is_stmt 0 view .LVU6
  70 0000 08B5     		push	{r3, lr}
  71              	.LCFI1:
  72              		.cfi_def_cfa_offset 8
  73              		.cfi_offset 3, -8
  74              		.cfi_offset 14, -4
  75 0002 0246     		mov	r2, r0
  12:Drivers/My_Drivers/src/driver_oled.c **** 	HAL_GPIO_WritePin(GPIOB, GPIO_PIN_9,x);
  76              		.loc 1 12 2 is_stmt 1 view .LVU7
  77 0004 4FF40071 		mov	r1, #512
  78 0008 0148     		ldr	r0, .L7
  79              	.LVL4:
  80              		.loc 1 12 2 is_stmt 0 view .LVU8
  81 000a FFF7FEFF 		bl	HAL_GPIO_WritePin
  82              	.LVL5:
  13:Drivers/My_Drivers/src/driver_oled.c **** }
  83              		.loc 1 13 1 view .LVU9
  84 000e 08BD     		pop	{r3, pc}
  85              	.L8:
  86              		.align	2
  87              	.L7:
  88 0010 000C0140 		.word	1073810432
  89              		.cfi_endproc
  90              	.LFE66:
  92              		.section	.text.OLED_I2C_Init,"ax",%progbits
  93              		.align	1
  94              		.global	OLED_I2C_Init
  95              		.syntax unified
  96              		.thumb
  97              		.thumb_func
  99              	OLED_I2C_Init:
 100              	.LFB67:
  14:Drivers/My_Drivers/src/driver_oled.c **** 
  15:Drivers/My_Drivers/src/driver_oled.c **** /*引脚初始化*/
  16:Drivers/My_Drivers/src/driver_oled.c **** void OLED_I2C_Init(void)
  17:Drivers/My_Drivers/src/driver_oled.c **** {
 101              		.loc 1 17 1 is_stmt 1 view -0
 102              		.cfi_startproc
ARM GAS  C:\Users\26927\AppData\Local\Temp\cck5sGic.s 			page 3


 103              		@ args = 0, pretend = 0, frame = 0
 104              		@ frame_needed = 0, uses_anonymous_args = 0
 105 0000 08B5     		push	{r3, lr}
 106              	.LCFI2:
 107              		.cfi_def_cfa_offset 8
 108              		.cfi_offset 3, -8
 109              		.cfi_offset 14, -4
  18:Drivers/My_Drivers/src/driver_oled.c **** //    RCC_APB2PeriphClockCmd(RCC_APB2Periph_GPIOB, ENABLE);
  19:Drivers/My_Drivers/src/driver_oled.c **** //
  20:Drivers/My_Drivers/src/driver_oled.c **** //	GPIO_InitTypeDef GPIO_InitStructure;
  21:Drivers/My_Drivers/src/driver_oled.c **** // 	GPIO_InitStructure.GPIO_Mode = GPIO_Mode_Out_OD;
  22:Drivers/My_Drivers/src/driver_oled.c **** //	GPIO_InitStructure.GPIO_Speed = GPIO_Speed_50MHz;
  23:Drivers/My_Drivers/src/driver_oled.c **** //	GPIO_InitStructure.GPIO_Pin = GPIO_Pin_8;
  24:Drivers/My_Drivers/src/driver_oled.c **** // 	GPIO_Init(GPIOB, &GPIO_InitStructure);
  25:Drivers/My_Drivers/src/driver_oled.c **** //	GPIO_InitStructure.GPIO_Pin = GPIO_Pin_9;
  26:Drivers/My_Drivers/src/driver_oled.c **** // 	GPIO_Init(GPIOB, &GPIO_InitStructure);
  27:Drivers/My_Drivers/src/driver_oled.c **** //	MX_GPIO_Init();
  28:Drivers/My_Drivers/src/driver_oled.c **** 
  29:Drivers/My_Drivers/src/driver_oled.c **** 	OLED_W_SCL(1);
 110              		.loc 1 29 2 view .LVU11
 111 0002 0120     		movs	r0, #1
 112 0004 FFF7FEFF 		bl	OLED_W_SCL
 113              	.LVL6:
  30:Drivers/My_Drivers/src/driver_oled.c **** 	OLED_W_SDA(1);
 114              		.loc 1 30 2 view .LVU12
 115 0008 0120     		movs	r0, #1
 116 000a FFF7FEFF 		bl	OLED_W_SDA
 117              	.LVL7:
  31:Drivers/My_Drivers/src/driver_oled.c **** }
 118              		.loc 1 31 1 is_stmt 0 view .LVU13
 119 000e 08BD     		pop	{r3, pc}
 120              		.cfi_endproc
 121              	.LFE67:
 123              		.section	.text.OLED_I2C_Start,"ax",%progbits
 124              		.align	1
 125              		.global	OLED_I2C_Start
 126              		.syntax unified
 127              		.thumb
 128              		.thumb_func
 130              	OLED_I2C_Start:
 131              	.LFB68:
  32:Drivers/My_Drivers/src/driver_oled.c **** 
  33:Drivers/My_Drivers/src/driver_oled.c **** /**
  34:Drivers/My_Drivers/src/driver_oled.c ****   * @brief  I2C开始
  35:Drivers/My_Drivers/src/driver_oled.c ****   * @param  无
  36:Drivers/My_Drivers/src/driver_oled.c ****   * @retval 无
  37:Drivers/My_Drivers/src/driver_oled.c ****   */
  38:Drivers/My_Drivers/src/driver_oled.c **** void OLED_I2C_Start(void)
  39:Drivers/My_Drivers/src/driver_oled.c **** {
 132              		.loc 1 39 1 is_stmt 1 view -0
 133              		.cfi_startproc
 134              		@ args = 0, pretend = 0, frame = 0
 135              		@ frame_needed = 0, uses_anonymous_args = 0
 136 0000 08B5     		push	{r3, lr}
 137              	.LCFI3:
 138              		.cfi_def_cfa_offset 8
 139              		.cfi_offset 3, -8
ARM GAS  C:\Users\26927\AppData\Local\Temp\cck5sGic.s 			page 4


 140              		.cfi_offset 14, -4
  40:Drivers/My_Drivers/src/driver_oled.c **** 	OLED_W_SDA(1);
 141              		.loc 1 40 2 view .LVU15
 142 0002 0120     		movs	r0, #1
 143 0004 FFF7FEFF 		bl	OLED_W_SDA
 144              	.LVL8:
  41:Drivers/My_Drivers/src/driver_oled.c **** 	OLED_W_SCL(1);
 145              		.loc 1 41 2 view .LVU16
 146 0008 0120     		movs	r0, #1
 147 000a FFF7FEFF 		bl	OLED_W_SCL
 148              	.LVL9:
  42:Drivers/My_Drivers/src/driver_oled.c **** 	OLED_W_SDA(0);
 149              		.loc 1 42 2 view .LVU17
 150 000e 0020     		movs	r0, #0
 151 0010 FFF7FEFF 		bl	OLED_W_SDA
 152              	.LVL10:
  43:Drivers/My_Drivers/src/driver_oled.c **** 	OLED_W_SCL(0);
 153              		.loc 1 43 2 view .LVU18
 154 0014 0020     		movs	r0, #0
 155 0016 FFF7FEFF 		bl	OLED_W_SCL
 156              	.LVL11:
  44:Drivers/My_Drivers/src/driver_oled.c **** }
 157              		.loc 1 44 1 is_stmt 0 view .LVU19
 158 001a 08BD     		pop	{r3, pc}
 159              		.cfi_endproc
 160              	.LFE68:
 162              		.section	.text.OLED_I2C_Stop,"ax",%progbits
 163              		.align	1
 164              		.global	OLED_I2C_Stop
 165              		.syntax unified
 166              		.thumb
 167              		.thumb_func
 169              	OLED_I2C_Stop:
 170              	.LFB69:
  45:Drivers/My_Drivers/src/driver_oled.c **** 
  46:Drivers/My_Drivers/src/driver_oled.c **** /**
  47:Drivers/My_Drivers/src/driver_oled.c ****   * @brief  I2C停止
  48:Drivers/My_Drivers/src/driver_oled.c ****   * @param  无
  49:Drivers/My_Drivers/src/driver_oled.c ****   * @retval 无
  50:Drivers/My_Drivers/src/driver_oled.c ****   */
  51:Drivers/My_Drivers/src/driver_oled.c **** void OLED_I2C_Stop(void)
  52:Drivers/My_Drivers/src/driver_oled.c **** {
 171              		.loc 1 52 1 is_stmt 1 view -0
 172              		.cfi_startproc
 173              		@ args = 0, pretend = 0, frame = 0
 174              		@ frame_needed = 0, uses_anonymous_args = 0
 175 0000 08B5     		push	{r3, lr}
 176              	.LCFI4:
 177              		.cfi_def_cfa_offset 8
 178              		.cfi_offset 3, -8
 179              		.cfi_offset 14, -4
  53:Drivers/My_Drivers/src/driver_oled.c **** 	OLED_W_SDA(0);
 180              		.loc 1 53 2 view .LVU21
 181 0002 0020     		movs	r0, #0
 182 0004 FFF7FEFF 		bl	OLED_W_SDA
 183              	.LVL12:
  54:Drivers/My_Drivers/src/driver_oled.c **** 	OLED_W_SCL(1);
ARM GAS  C:\Users\26927\AppData\Local\Temp\cck5sGic.s 			page 5


 184              		.loc 1 54 2 view .LVU22
 185 0008 0120     		movs	r0, #1
 186 000a FFF7FEFF 		bl	OLED_W_SCL
 187              	.LVL13:
  55:Drivers/My_Drivers/src/driver_oled.c **** 	OLED_W_SDA(1);
 188              		.loc 1 55 2 view .LVU23
 189 000e 0120     		movs	r0, #1
 190 0010 FFF7FEFF 		bl	OLED_W_SDA
 191              	.LVL14:
  56:Drivers/My_Drivers/src/driver_oled.c **** }
 192              		.loc 1 56 1 is_stmt 0 view .LVU24
 193 0014 08BD     		pop	{r3, pc}
 194              		.cfi_endproc
 195              	.LFE69:
 197              		.section	.text.OLED_I2C_SendByte,"ax",%progbits
 198              		.align	1
 199              		.global	OLED_I2C_SendByte
 200              		.syntax unified
 201              		.thumb
 202              		.thumb_func
 204              	OLED_I2C_SendByte:
 205              	.LVL15:
 206              	.LFB70:
  57:Drivers/My_Drivers/src/driver_oled.c **** 
  58:Drivers/My_Drivers/src/driver_oled.c **** /**
  59:Drivers/My_Drivers/src/driver_oled.c ****   * @brief  I2C发送一个字节
  60:Drivers/My_Drivers/src/driver_oled.c ****   * @param  Byte 要发送的一个字节
  61:Drivers/My_Drivers/src/driver_oled.c ****   * @retval 无
  62:Drivers/My_Drivers/src/driver_oled.c ****   */
  63:Drivers/My_Drivers/src/driver_oled.c **** void OLED_I2C_SendByte(uint8_t Byte)
  64:Drivers/My_Drivers/src/driver_oled.c **** {
 207              		.loc 1 64 1 is_stmt 1 view -0
 208              		.cfi_startproc
 209              		@ args = 0, pretend = 0, frame = 0
 210              		@ frame_needed = 0, uses_anonymous_args = 0
 211              		.loc 1 64 1 is_stmt 0 view .LVU26
 212 0000 38B5     		push	{r3, r4, r5, lr}
 213              	.LCFI5:
 214              		.cfi_def_cfa_offset 16
 215              		.cfi_offset 3, -16
 216              		.cfi_offset 4, -12
 217              		.cfi_offset 5, -8
 218              		.cfi_offset 14, -4
 219 0002 0546     		mov	r5, r0
  65:Drivers/My_Drivers/src/driver_oled.c **** 	uint8_t i;
 220              		.loc 1 65 2 is_stmt 1 view .LVU27
  66:Drivers/My_Drivers/src/driver_oled.c **** 	for (i = 0; i < 8; i++)
 221              		.loc 1 66 2 view .LVU28
 222              	.LVL16:
 223              		.loc 1 66 9 is_stmt 0 view .LVU29
 224 0004 0024     		movs	r4, #0
 225              		.loc 1 66 2 view .LVU30
 226 0006 0CE0     		b	.L16
 227              	.LVL17:
 228              	.L17:
  67:Drivers/My_Drivers/src/driver_oled.c **** 	{
  68:Drivers/My_Drivers/src/driver_oled.c **** 		OLED_W_SDA(Byte & (0x80 >> i));
ARM GAS  C:\Users\26927\AppData\Local\Temp\cck5sGic.s 			page 6


 229              		.loc 1 68 3 is_stmt 1 discriminator 3 view .LVU31
 230              		.loc 1 68 27 is_stmt 0 discriminator 3 view .LVU32
 231 0008 8020     		movs	r0, #128
 232 000a 2041     		asrs	r0, r0, r4
 233              		.loc 1 68 3 discriminator 3 view .LVU33
 234 000c 2840     		ands	r0, r0, r5
 235 000e FFF7FEFF 		bl	OLED_W_SDA
 236              	.LVL18:
  69:Drivers/My_Drivers/src/driver_oled.c **** 		OLED_W_SCL(1);
 237              		.loc 1 69 3 is_stmt 1 discriminator 3 view .LVU34
 238 0012 0120     		movs	r0, #1
 239 0014 FFF7FEFF 		bl	OLED_W_SCL
 240              	.LVL19:
  70:Drivers/My_Drivers/src/driver_oled.c **** 		OLED_W_SCL(0);
 241              		.loc 1 70 3 discriminator 3 view .LVU35
 242 0018 0020     		movs	r0, #0
 243 001a FFF7FEFF 		bl	OLED_W_SCL
 244              	.LVL20:
  66:Drivers/My_Drivers/src/driver_oled.c **** 	{
 245              		.loc 1 66 21 discriminator 3 view .LVU36
  66:Drivers/My_Drivers/src/driver_oled.c **** 	{
 246              		.loc 1 66 22 is_stmt 0 discriminator 3 view .LVU37
 247 001e 0134     		adds	r4, r4, #1
 248              	.LVL21:
  66:Drivers/My_Drivers/src/driver_oled.c **** 	{
 249              		.loc 1 66 22 discriminator 3 view .LVU38
 250 0020 E4B2     		uxtb	r4, r4
 251              	.LVL22:
 252              	.L16:
  66:Drivers/My_Drivers/src/driver_oled.c **** 	{
 253              		.loc 1 66 14 is_stmt 1 discriminator 1 view .LVU39
  66:Drivers/My_Drivers/src/driver_oled.c **** 	{
 254              		.loc 1 66 2 is_stmt 0 discriminator 1 view .LVU40
 255 0022 072C     		cmp	r4, #7
 256 0024 F0D9     		bls	.L17
  71:Drivers/My_Drivers/src/driver_oled.c **** 	}
  72:Drivers/My_Drivers/src/driver_oled.c **** 	OLED_W_SCL(1);	//额外的一个时钟，不处理应答信号
 257              		.loc 1 72 2 is_stmt 1 view .LVU41
 258 0026 0120     		movs	r0, #1
 259 0028 FFF7FEFF 		bl	OLED_W_SCL
 260              	.LVL23:
  73:Drivers/My_Drivers/src/driver_oled.c **** 	OLED_W_SCL(0);
 261              		.loc 1 73 2 view .LVU42
 262 002c 0020     		movs	r0, #0
 263 002e FFF7FEFF 		bl	OLED_W_SCL
 264              	.LVL24:
  74:Drivers/My_Drivers/src/driver_oled.c **** }
 265              		.loc 1 74 1 is_stmt 0 view .LVU43
 266 0032 38BD     		pop	{r3, r4, r5, pc}
 267              		.loc 1 74 1 view .LVU44
 268              		.cfi_endproc
 269              	.LFE70:
 271              		.section	.text.OLED_WriteCommand,"ax",%progbits
 272              		.align	1
 273              		.global	OLED_WriteCommand
 274              		.syntax unified
 275              		.thumb
ARM GAS  C:\Users\26927\AppData\Local\Temp\cck5sGic.s 			page 7


 276              		.thumb_func
 278              	OLED_WriteCommand:
 279              	.LVL25:
 280              	.LFB71:
  75:Drivers/My_Drivers/src/driver_oled.c **** 
  76:Drivers/My_Drivers/src/driver_oled.c **** /**
  77:Drivers/My_Drivers/src/driver_oled.c ****   * @brief  OLED写命令
  78:Drivers/My_Drivers/src/driver_oled.c ****   * @param  Command 要写入的命令
  79:Drivers/My_Drivers/src/driver_oled.c ****   * @retval 无
  80:Drivers/My_Drivers/src/driver_oled.c ****   */
  81:Drivers/My_Drivers/src/driver_oled.c **** void OLED_WriteCommand(uint8_t Command)
  82:Drivers/My_Drivers/src/driver_oled.c **** {
 281              		.loc 1 82 1 is_stmt 1 view -0
 282              		.cfi_startproc
 283              		@ args = 0, pretend = 0, frame = 0
 284              		@ frame_needed = 0, uses_anonymous_args = 0
 285              		.loc 1 82 1 is_stmt 0 view .LVU46
 286 0000 10B5     		push	{r4, lr}
 287              	.LCFI6:
 288              		.cfi_def_cfa_offset 8
 289              		.cfi_offset 4, -8
 290              		.cfi_offset 14, -4
 291 0002 0446     		mov	r4, r0
  83:Drivers/My_Drivers/src/driver_oled.c **** 	OLED_I2C_Start();
 292              		.loc 1 83 2 is_stmt 1 view .LVU47
 293 0004 FFF7FEFF 		bl	OLED_I2C_Start
 294              	.LVL26:
  84:Drivers/My_Drivers/src/driver_oled.c **** 	OLED_I2C_SendByte(0x78);		//从机地址
 295              		.loc 1 84 2 view .LVU48
 296 0008 7820     		movs	r0, #120
 297 000a FFF7FEFF 		bl	OLED_I2C_SendByte
 298              	.LVL27:
  85:Drivers/My_Drivers/src/driver_oled.c **** 	OLED_I2C_SendByte(0x00);		//写命令
 299              		.loc 1 85 2 view .LVU49
 300 000e 0020     		movs	r0, #0
 301 0010 FFF7FEFF 		bl	OLED_I2C_SendByte
 302              	.LVL28:
  86:Drivers/My_Drivers/src/driver_oled.c **** 	OLED_I2C_SendByte(Command); 
 303              		.loc 1 86 2 view .LVU50
 304 0014 2046     		mov	r0, r4
 305 0016 FFF7FEFF 		bl	OLED_I2C_SendByte
 306              	.LVL29:
  87:Drivers/My_Drivers/src/driver_oled.c **** 	OLED_I2C_Stop();
 307              		.loc 1 87 2 view .LVU51
 308 001a FFF7FEFF 		bl	OLED_I2C_Stop
 309              	.LVL30:
  88:Drivers/My_Drivers/src/driver_oled.c **** }
 310              		.loc 1 88 1 is_stmt 0 view .LVU52
 311 001e 10BD     		pop	{r4, pc}
 312              		.cfi_endproc
 313              	.LFE71:
 315              		.section	.text.OLED_WriteData,"ax",%progbits
 316              		.align	1
 317              		.global	OLED_WriteData
 318              		.syntax unified
 319              		.thumb
 320              		.thumb_func
ARM GAS  C:\Users\26927\AppData\Local\Temp\cck5sGic.s 			page 8


 322              	OLED_WriteData:
 323              	.LVL31:
 324              	.LFB72:
  89:Drivers/My_Drivers/src/driver_oled.c **** 
  90:Drivers/My_Drivers/src/driver_oled.c **** /**
  91:Drivers/My_Drivers/src/driver_oled.c ****   * @brief  OLED写数据
  92:Drivers/My_Drivers/src/driver_oled.c ****   * @param  Data 要写入的数据
  93:Drivers/My_Drivers/src/driver_oled.c ****   * @retval 无
  94:Drivers/My_Drivers/src/driver_oled.c ****   */
  95:Drivers/My_Drivers/src/driver_oled.c **** void OLED_WriteData(uint8_t Data)
  96:Drivers/My_Drivers/src/driver_oled.c **** {
 325              		.loc 1 96 1 is_stmt 1 view -0
 326              		.cfi_startproc
 327              		@ args = 0, pretend = 0, frame = 0
 328              		@ frame_needed = 0, uses_anonymous_args = 0
 329              		.loc 1 96 1 is_stmt 0 view .LVU54
 330 0000 10B5     		push	{r4, lr}
 331              	.LCFI7:
 332              		.cfi_def_cfa_offset 8
 333              		.cfi_offset 4, -8
 334              		.cfi_offset 14, -4
 335 0002 0446     		mov	r4, r0
  97:Drivers/My_Drivers/src/driver_oled.c **** 	OLED_I2C_Start();
 336              		.loc 1 97 2 is_stmt 1 view .LVU55
 337 0004 FFF7FEFF 		bl	OLED_I2C_Start
 338              	.LVL32:
  98:Drivers/My_Drivers/src/driver_oled.c **** 	OLED_I2C_SendByte(0x78);		//从机地址
 339              		.loc 1 98 2 view .LVU56
 340 0008 7820     		movs	r0, #120
 341 000a FFF7FEFF 		bl	OLED_I2C_SendByte
 342              	.LVL33:
  99:Drivers/My_Drivers/src/driver_oled.c **** 	OLED_I2C_SendByte(0x40);		//写数据
 343              		.loc 1 99 2 view .LVU57
 344 000e 4020     		movs	r0, #64
 345 0010 FFF7FEFF 		bl	OLED_I2C_SendByte
 346              	.LVL34:
 100:Drivers/My_Drivers/src/driver_oled.c **** 	OLED_I2C_SendByte(Data);
 347              		.loc 1 100 2 view .LVU58
 348 0014 2046     		mov	r0, r4
 349 0016 FFF7FEFF 		bl	OLED_I2C_SendByte
 350              	.LVL35:
 101:Drivers/My_Drivers/src/driver_oled.c **** 	OLED_I2C_Stop();
 351              		.loc 1 101 2 view .LVU59
 352 001a FFF7FEFF 		bl	OLED_I2C_Stop
 353              	.LVL36:
 102:Drivers/My_Drivers/src/driver_oled.c **** }
 354              		.loc 1 102 1 is_stmt 0 view .LVU60
 355 001e 10BD     		pop	{r4, pc}
 356              		.cfi_endproc
 357              	.LFE72:
 359              		.section	.text.OLED_SetCursor,"ax",%progbits
 360              		.align	1
 361              		.global	OLED_SetCursor
 362              		.syntax unified
 363              		.thumb
 364              		.thumb_func
 366              	OLED_SetCursor:
ARM GAS  C:\Users\26927\AppData\Local\Temp\cck5sGic.s 			page 9


 367              	.LVL37:
 368              	.LFB73:
 103:Drivers/My_Drivers/src/driver_oled.c **** 
 104:Drivers/My_Drivers/src/driver_oled.c **** /**
 105:Drivers/My_Drivers/src/driver_oled.c ****   * @brief  OLED设置光标位置
 106:Drivers/My_Drivers/src/driver_oled.c ****   * @param  Y 以左上角为原点，向下方向的坐标，范围：0~7
 107:Drivers/My_Drivers/src/driver_oled.c ****   * @param  X 以左上角为原点，向右方向的坐标，范围：0~127
 108:Drivers/My_Drivers/src/driver_oled.c ****   * @retval 无
 109:Drivers/My_Drivers/src/driver_oled.c ****   */
 110:Drivers/My_Drivers/src/driver_oled.c **** void OLED_SetCursor(uint8_t Y, uint8_t X)
 111:Drivers/My_Drivers/src/driver_oled.c **** {
 369              		.loc 1 111 1 is_stmt 1 view -0
 370              		.cfi_startproc
 371              		@ args = 0, pretend = 0, frame = 0
 372              		@ frame_needed = 0, uses_anonymous_args = 0
 373              		.loc 1 111 1 is_stmt 0 view .LVU62
 374 0000 10B5     		push	{r4, lr}
 375              	.LCFI8:
 376              		.cfi_def_cfa_offset 8
 377              		.cfi_offset 4, -8
 378              		.cfi_offset 14, -4
 379 0002 0C46     		mov	r4, r1
 112:Drivers/My_Drivers/src/driver_oled.c **** 	OLED_WriteCommand(0xB0 | Y);					//设置Y位置
 380              		.loc 1 112 2 is_stmt 1 view .LVU63
 381 0004 40F0B000 		orr	r0, r0, #176
 382              	.LVL38:
 383              		.loc 1 112 2 is_stmt 0 view .LVU64
 384 0008 FFF7FEFF 		bl	OLED_WriteCommand
 385              	.LVL39:
 113:Drivers/My_Drivers/src/driver_oled.c **** 	OLED_WriteCommand(0x10 | ((X & 0xF0) >> 4));	//设置X位置高4位
 386              		.loc 1 113 2 is_stmt 1 view .LVU65
 387              		.loc 1 113 39 is_stmt 0 view .LVU66
 388 000c 2009     		lsrs	r0, r4, #4
 389              		.loc 1 113 2 view .LVU67
 390 000e 40F01000 		orr	r0, r0, #16
 391 0012 FFF7FEFF 		bl	OLED_WriteCommand
 392              	.LVL40:
 114:Drivers/My_Drivers/src/driver_oled.c **** 	OLED_WriteCommand(0x00 | (X & 0x0F));			//设置X位置低4位
 393              		.loc 1 114 2 is_stmt 1 view .LVU68
 394 0016 04F00F00 		and	r0, r4, #15
 395 001a FFF7FEFF 		bl	OLED_WriteCommand
 396              	.LVL41:
 115:Drivers/My_Drivers/src/driver_oled.c **** }
 397              		.loc 1 115 1 is_stmt 0 view .LVU69
 398 001e 10BD     		pop	{r4, pc}
 399              		.cfi_endproc
 400              	.LFE73:
 402              		.section	.text.OLED_Clear,"ax",%progbits
 403              		.align	1
 404              		.global	OLED_Clear
 405              		.syntax unified
 406              		.thumb
 407              		.thumb_func
 409              	OLED_Clear:
 410              	.LFB74:
 116:Drivers/My_Drivers/src/driver_oled.c **** 
 117:Drivers/My_Drivers/src/driver_oled.c **** /**
ARM GAS  C:\Users\26927\AppData\Local\Temp\cck5sGic.s 			page 10


 118:Drivers/My_Drivers/src/driver_oled.c ****   * @brief  OLED清屏
 119:Drivers/My_Drivers/src/driver_oled.c ****   * @param  无
 120:Drivers/My_Drivers/src/driver_oled.c ****   * @retval 无
 121:Drivers/My_Drivers/src/driver_oled.c ****   */
 122:Drivers/My_Drivers/src/driver_oled.c **** void OLED_Clear(void)
 123:Drivers/My_Drivers/src/driver_oled.c **** {  
 411              		.loc 1 123 1 is_stmt 1 view -0
 412              		.cfi_startproc
 413              		@ args = 0, pretend = 0, frame = 0
 414              		@ frame_needed = 0, uses_anonymous_args = 0
 415 0000 38B5     		push	{r3, r4, r5, lr}
 416              	.LCFI9:
 417              		.cfi_def_cfa_offset 16
 418              		.cfi_offset 3, -16
 419              		.cfi_offset 4, -12
 420              		.cfi_offset 5, -8
 421              		.cfi_offset 14, -4
 124:Drivers/My_Drivers/src/driver_oled.c **** 	uint8_t i, j;
 422              		.loc 1 124 2 view .LVU71
 125:Drivers/My_Drivers/src/driver_oled.c **** 	for (j = 0; j < 8; j++)
 423              		.loc 1 125 2 view .LVU72
 424              	.LVL42:
 425              		.loc 1 125 9 is_stmt 0 view .LVU73
 426 0002 0025     		movs	r5, #0
 427              		.loc 1 125 2 view .LVU74
 428 0004 09E0     		b	.L26
 429              	.LVL43:
 430              	.L28:
 126:Drivers/My_Drivers/src/driver_oled.c **** 	{
 127:Drivers/My_Drivers/src/driver_oled.c **** 		OLED_SetCursor(j, 0);
 128:Drivers/My_Drivers/src/driver_oled.c **** 		for(i = 0; i < 128; i++)
 129:Drivers/My_Drivers/src/driver_oled.c **** 		{
 130:Drivers/My_Drivers/src/driver_oled.c **** 			OLED_WriteData(0x00);
 431              		.loc 1 130 4 is_stmt 1 discriminator 3 view .LVU75
 432 0006 0020     		movs	r0, #0
 433 0008 FFF7FEFF 		bl	OLED_WriteData
 434              	.LVL44:
 128:Drivers/My_Drivers/src/driver_oled.c **** 		{
 435              		.loc 1 128 23 discriminator 3 view .LVU76
 128:Drivers/My_Drivers/src/driver_oled.c **** 		{
 436              		.loc 1 128 24 is_stmt 0 discriminator 3 view .LVU77
 437 000c 0134     		adds	r4, r4, #1
 438              	.LVL45:
 128:Drivers/My_Drivers/src/driver_oled.c **** 		{
 439              		.loc 1 128 24 discriminator 3 view .LVU78
 440 000e E4B2     		uxtb	r4, r4
 441              	.LVL46:
 442              	.L27:
 128:Drivers/My_Drivers/src/driver_oled.c **** 		{
 443              		.loc 1 128 14 is_stmt 1 discriminator 1 view .LVU79
 128:Drivers/My_Drivers/src/driver_oled.c **** 		{
 444              		.loc 1 128 3 is_stmt 0 discriminator 1 view .LVU80
 445 0010 14F0800F 		tst	r4, #128
 446 0014 F7D0     		beq	.L28
 125:Drivers/My_Drivers/src/driver_oled.c **** 	for (j = 0; j < 8; j++)
 447              		.loc 1 125 21 is_stmt 1 discriminator 2 view .LVU81
 125:Drivers/My_Drivers/src/driver_oled.c **** 	for (j = 0; j < 8; j++)
ARM GAS  C:\Users\26927\AppData\Local\Temp\cck5sGic.s 			page 11


 448              		.loc 1 125 22 is_stmt 0 discriminator 2 view .LVU82
 449 0016 0135     		adds	r5, r5, #1
 450              	.LVL47:
 125:Drivers/My_Drivers/src/driver_oled.c **** 	for (j = 0; j < 8; j++)
 451              		.loc 1 125 22 discriminator 2 view .LVU83
 452 0018 EDB2     		uxtb	r5, r5
 453              	.LVL48:
 454              	.L26:
 125:Drivers/My_Drivers/src/driver_oled.c **** 	for (j = 0; j < 8; j++)
 455              		.loc 1 125 14 is_stmt 1 discriminator 1 view .LVU84
 125:Drivers/My_Drivers/src/driver_oled.c **** 	for (j = 0; j < 8; j++)
 456              		.loc 1 125 2 is_stmt 0 discriminator 1 view .LVU85
 457 001a 072D     		cmp	r5, #7
 458 001c 05D8     		bhi	.L31
 127:Drivers/My_Drivers/src/driver_oled.c **** 		for(i = 0; i < 128; i++)
 459              		.loc 1 127 3 is_stmt 1 view .LVU86
 460 001e 0021     		movs	r1, #0
 461 0020 2846     		mov	r0, r5
 462 0022 FFF7FEFF 		bl	OLED_SetCursor
 463              	.LVL49:
 128:Drivers/My_Drivers/src/driver_oled.c **** 		{
 464              		.loc 1 128 3 view .LVU87
 128:Drivers/My_Drivers/src/driver_oled.c **** 		{
 465              		.loc 1 128 9 is_stmt 0 view .LVU88
 466 0026 0024     		movs	r4, #0
 128:Drivers/My_Drivers/src/driver_oled.c **** 		{
 467              		.loc 1 128 3 view .LVU89
 468 0028 F2E7     		b	.L27
 469              	.LVL50:
 470              	.L31:
 131:Drivers/My_Drivers/src/driver_oled.c **** 		}
 132:Drivers/My_Drivers/src/driver_oled.c **** 	}
 133:Drivers/My_Drivers/src/driver_oled.c **** }
 471              		.loc 1 133 1 view .LVU90
 472 002a 38BD     		pop	{r3, r4, r5, pc}
 473              		.loc 1 133 1 view .LVU91
 474              		.cfi_endproc
 475              	.LFE74:
 477              		.section	.text.OLED_ShowChar,"ax",%progbits
 478              		.align	1
 479              		.global	OLED_ShowChar
 480              		.syntax unified
 481              		.thumb
 482              		.thumb_func
 484              	OLED_ShowChar:
 485              	.LVL51:
 486              	.LFB75:
 134:Drivers/My_Drivers/src/driver_oled.c **** 
 135:Drivers/My_Drivers/src/driver_oled.c **** /**
 136:Drivers/My_Drivers/src/driver_oled.c ****   * @brief  OLED显示一个字符
 137:Drivers/My_Drivers/src/driver_oled.c ****   * @param  Line 行位置，范围：1~4
 138:Drivers/My_Drivers/src/driver_oled.c ****   * @param  Column 列位置，范围：1~16
 139:Drivers/My_Drivers/src/driver_oled.c ****   * @param  Char 要显示的一个字符，范围：ASCII可见字符
 140:Drivers/My_Drivers/src/driver_oled.c ****   * @retval 无
 141:Drivers/My_Drivers/src/driver_oled.c ****   */
 142:Drivers/My_Drivers/src/driver_oled.c **** void OLED_ShowChar(uint8_t Line, uint8_t Column, char Char)
 143:Drivers/My_Drivers/src/driver_oled.c **** {      	
ARM GAS  C:\Users\26927\AppData\Local\Temp\cck5sGic.s 			page 12


 487              		.loc 1 143 1 is_stmt 1 view -0
 488              		.cfi_startproc
 489              		@ args = 0, pretend = 0, frame = 0
 490              		@ frame_needed = 0, uses_anonymous_args = 0
 491              		.loc 1 143 1 is_stmt 0 view .LVU93
 492 0000 F8B5     		push	{r3, r4, r5, r6, r7, lr}
 493              	.LCFI10:
 494              		.cfi_def_cfa_offset 24
 495              		.cfi_offset 3, -24
 496              		.cfi_offset 4, -20
 497              		.cfi_offset 5, -16
 498              		.cfi_offset 6, -12
 499              		.cfi_offset 7, -8
 500              		.cfi_offset 14, -4
 501 0002 1546     		mov	r5, r2
 144:Drivers/My_Drivers/src/driver_oled.c **** 	uint8_t i;
 502              		.loc 1 144 2 is_stmt 1 view .LVU94
 145:Drivers/My_Drivers/src/driver_oled.c **** 	OLED_SetCursor((Line - 1) * 2, (Column - 1) * 8);		//设置光标位置在上半部分
 503              		.loc 1 145 2 view .LVU95
 504 0004 461E     		subs	r6, r0, #1
 505 0006 7600     		lsls	r6, r6, #1
 506 0008 F6B2     		uxtb	r6, r6
 507 000a 4F1E     		subs	r7, r1, #1
 508 000c FF00     		lsls	r7, r7, #3
 509 000e FFB2     		uxtb	r7, r7
 510 0010 3946     		mov	r1, r7
 511              	.LVL52:
 512              		.loc 1 145 2 is_stmt 0 view .LVU96
 513 0012 3046     		mov	r0, r6
 514              	.LVL53:
 515              		.loc 1 145 2 view .LVU97
 516 0014 FFF7FEFF 		bl	OLED_SetCursor
 517              	.LVL54:
 146:Drivers/My_Drivers/src/driver_oled.c **** 	for (i = 0; i < 8; i++)
 518              		.loc 1 146 2 is_stmt 1 view .LVU98
 519              		.loc 1 146 9 is_stmt 0 view .LVU99
 520 0018 0024     		movs	r4, #0
 521              		.loc 1 146 2 view .LVU100
 522 001a 09E0     		b	.L33
 523              	.LVL55:
 524              	.L34:
 147:Drivers/My_Drivers/src/driver_oled.c **** 	{
 148:Drivers/My_Drivers/src/driver_oled.c **** 		OLED_WriteData(OLED_F8x16[Char - ' '][i]);			//显示上半部分内容
 525              		.loc 1 148 3 is_stmt 1 discriminator 3 view .LVU101
 526              		.loc 1 148 34 is_stmt 0 discriminator 3 view .LVU102
 527 001c A5F12003 		sub	r3, r5, #32
 528              		.loc 1 148 3 discriminator 3 view .LVU103
 529 0020 0F4A     		ldr	r2, .L38
 530 0022 02EB0313 		add	r3, r2, r3, lsl #4
 531 0026 185D     		ldrb	r0, [r3, r4]	@ zero_extendqisi2
 532 0028 FFF7FEFF 		bl	OLED_WriteData
 533              	.LVL56:
 146:Drivers/My_Drivers/src/driver_oled.c **** 	for (i = 0; i < 8; i++)
 534              		.loc 1 146 21 is_stmt 1 discriminator 3 view .LVU104
 146:Drivers/My_Drivers/src/driver_oled.c **** 	for (i = 0; i < 8; i++)
 535              		.loc 1 146 22 is_stmt 0 discriminator 3 view .LVU105
 536 002c 0134     		adds	r4, r4, #1
ARM GAS  C:\Users\26927\AppData\Local\Temp\cck5sGic.s 			page 13


 537              	.LVL57:
 146:Drivers/My_Drivers/src/driver_oled.c **** 	for (i = 0; i < 8; i++)
 538              		.loc 1 146 22 discriminator 3 view .LVU106
 539 002e E4B2     		uxtb	r4, r4
 540              	.LVL58:
 541              	.L33:
 146:Drivers/My_Drivers/src/driver_oled.c **** 	for (i = 0; i < 8; i++)
 542              		.loc 1 146 14 is_stmt 1 discriminator 1 view .LVU107
 146:Drivers/My_Drivers/src/driver_oled.c **** 	for (i = 0; i < 8; i++)
 543              		.loc 1 146 2 is_stmt 0 discriminator 1 view .LVU108
 544 0030 072C     		cmp	r4, #7
 545 0032 F3D9     		bls	.L34
 149:Drivers/My_Drivers/src/driver_oled.c **** 	}
 150:Drivers/My_Drivers/src/driver_oled.c **** 	OLED_SetCursor((Line - 1) * 2 + 1, (Column - 1) * 8);	//设置光标位置在下半部分
 546              		.loc 1 150 2 is_stmt 1 view .LVU109
 547 0034 701C     		adds	r0, r6, #1
 548 0036 3946     		mov	r1, r7
 549 0038 C0B2     		uxtb	r0, r0
 550 003a FFF7FEFF 		bl	OLED_SetCursor
 551              	.LVL59:
 151:Drivers/My_Drivers/src/driver_oled.c **** 	for (i = 0; i < 8; i++)
 552              		.loc 1 151 2 view .LVU110
 553              		.loc 1 151 9 is_stmt 0 view .LVU111
 554 003e 0024     		movs	r4, #0
 555              		.loc 1 151 2 view .LVU112
 556 0040 0BE0     		b	.L35
 557              	.LVL60:
 558              	.L36:
 152:Drivers/My_Drivers/src/driver_oled.c **** 	{
 153:Drivers/My_Drivers/src/driver_oled.c **** 		OLED_WriteData(OLED_F8x16[Char - ' '][i + 8]);		//显示下半部分内容
 559              		.loc 1 153 3 is_stmt 1 discriminator 3 view .LVU113
 560              		.loc 1 153 34 is_stmt 0 discriminator 3 view .LVU114
 561 0042 A5F12003 		sub	r3, r5, #32
 562              		.loc 1 153 43 discriminator 3 view .LVU115
 563 0046 04F10802 		add	r2, r4, #8
 564              		.loc 1 153 3 discriminator 3 view .LVU116
 565 004a 0549     		ldr	r1, .L38
 566 004c 01EB0313 		add	r3, r1, r3, lsl #4
 567 0050 985C     		ldrb	r0, [r3, r2]	@ zero_extendqisi2
 568 0052 FFF7FEFF 		bl	OLED_WriteData
 569              	.LVL61:
 151:Drivers/My_Drivers/src/driver_oled.c **** 	for (i = 0; i < 8; i++)
 570              		.loc 1 151 21 is_stmt 1 discriminator 3 view .LVU117
 151:Drivers/My_Drivers/src/driver_oled.c **** 	for (i = 0; i < 8; i++)
 571              		.loc 1 151 22 is_stmt 0 discriminator 3 view .LVU118
 572 0056 0134     		adds	r4, r4, #1
 573              	.LVL62:
 151:Drivers/My_Drivers/src/driver_oled.c **** 	for (i = 0; i < 8; i++)
 574              		.loc 1 151 22 discriminator 3 view .LVU119
 575 0058 E4B2     		uxtb	r4, r4
 576              	.LVL63:
 577              	.L35:
 151:Drivers/My_Drivers/src/driver_oled.c **** 	for (i = 0; i < 8; i++)
 578              		.loc 1 151 14 is_stmt 1 discriminator 1 view .LVU120
 151:Drivers/My_Drivers/src/driver_oled.c **** 	for (i = 0; i < 8; i++)
 579              		.loc 1 151 2 is_stmt 0 discriminator 1 view .LVU121
 580 005a 072C     		cmp	r4, #7
ARM GAS  C:\Users\26927\AppData\Local\Temp\cck5sGic.s 			page 14


 581 005c F1D9     		bls	.L36
 154:Drivers/My_Drivers/src/driver_oled.c **** 	}
 155:Drivers/My_Drivers/src/driver_oled.c **** }
 582              		.loc 1 155 1 view .LVU122
 583 005e F8BD     		pop	{r3, r4, r5, r6, r7, pc}
 584              	.LVL64:
 585              	.L39:
 586              		.loc 1 155 1 view .LVU123
 587              		.align	2
 588              	.L38:
 589 0060 00000000 		.word	.LANCHOR0
 590              		.cfi_endproc
 591              	.LFE75:
 593              		.section	.text.OLED_ShowString,"ax",%progbits
 594              		.align	1
 595              		.global	OLED_ShowString
 596              		.syntax unified
 597              		.thumb
 598              		.thumb_func
 600              	OLED_ShowString:
 601              	.LVL65:
 602              	.LFB76:
 156:Drivers/My_Drivers/src/driver_oled.c **** 
 157:Drivers/My_Drivers/src/driver_oled.c **** /**
 158:Drivers/My_Drivers/src/driver_oled.c ****   * @brief  OLED显示字符串
 159:Drivers/My_Drivers/src/driver_oled.c ****   * @param  Line 起始行位置，范围：1~4
 160:Drivers/My_Drivers/src/driver_oled.c ****   * @param  Column 起始列位置，范围：1~16
 161:Drivers/My_Drivers/src/driver_oled.c ****   * @param  String 要显示的字符串，范围：ASCII可见字符
 162:Drivers/My_Drivers/src/driver_oled.c ****   * @retval 无
 163:Drivers/My_Drivers/src/driver_oled.c ****   */
 164:Drivers/My_Drivers/src/driver_oled.c **** void OLED_ShowString(uint8_t Line, uint8_t Column, char *String)
 165:Drivers/My_Drivers/src/driver_oled.c **** {
 603              		.loc 1 165 1 is_stmt 1 view -0
 604              		.cfi_startproc
 605              		@ args = 0, pretend = 0, frame = 0
 606              		@ frame_needed = 0, uses_anonymous_args = 0
 607              		.loc 1 165 1 is_stmt 0 view .LVU125
 608 0000 F8B5     		push	{r3, r4, r5, r6, r7, lr}
 609              	.LCFI11:
 610              		.cfi_def_cfa_offset 24
 611              		.cfi_offset 3, -24
 612              		.cfi_offset 4, -20
 613              		.cfi_offset 5, -16
 614              		.cfi_offset 6, -12
 615              		.cfi_offset 7, -8
 616              		.cfi_offset 14, -4
 617 0002 0746     		mov	r7, r0
 618 0004 0E46     		mov	r6, r1
 619 0006 1546     		mov	r5, r2
 166:Drivers/My_Drivers/src/driver_oled.c **** 	uint8_t i;
 620              		.loc 1 166 2 is_stmt 1 view .LVU126
 167:Drivers/My_Drivers/src/driver_oled.c **** 	for (i = 0; String[i] != '\0'; i++)
 621              		.loc 1 167 2 view .LVU127
 622              	.LVL66:
 623              		.loc 1 167 9 is_stmt 0 view .LVU128
 624 0008 0024     		movs	r4, #0
 625              		.loc 1 167 2 view .LVU129
ARM GAS  C:\Users\26927\AppData\Local\Temp\cck5sGic.s 			page 15


 626 000a 06E0     		b	.L41
 627              	.LVL67:
 628              	.L42:
 168:Drivers/My_Drivers/src/driver_oled.c **** 	{
 169:Drivers/My_Drivers/src/driver_oled.c **** 		OLED_ShowChar(Line, Column + i, String[i]);
 629              		.loc 1 169 3 is_stmt 1 discriminator 3 view .LVU130
 630 000c A119     		adds	r1, r4, r6
 631 000e C9B2     		uxtb	r1, r1
 632 0010 3846     		mov	r0, r7
 633 0012 FFF7FEFF 		bl	OLED_ShowChar
 634              	.LVL68:
 167:Drivers/My_Drivers/src/driver_oled.c **** 	for (i = 0; String[i] != '\0'; i++)
 635              		.loc 1 167 33 discriminator 3 view .LVU131
 167:Drivers/My_Drivers/src/driver_oled.c **** 	for (i = 0; String[i] != '\0'; i++)
 636              		.loc 1 167 34 is_stmt 0 discriminator 3 view .LVU132
 637 0016 0134     		adds	r4, r4, #1
 638              	.LVL69:
 167:Drivers/My_Drivers/src/driver_oled.c **** 	for (i = 0; String[i] != '\0'; i++)
 639              		.loc 1 167 34 discriminator 3 view .LVU133
 640 0018 E4B2     		uxtb	r4, r4
 641              	.LVL70:
 642              	.L41:
 167:Drivers/My_Drivers/src/driver_oled.c **** 	for (i = 0; String[i] != '\0'; i++)
 643              		.loc 1 167 14 is_stmt 1 discriminator 1 view .LVU134
 167:Drivers/My_Drivers/src/driver_oled.c **** 	for (i = 0; String[i] != '\0'; i++)
 644              		.loc 1 167 20 is_stmt 0 discriminator 1 view .LVU135
 645 001a 2A5D     		ldrb	r2, [r5, r4]	@ zero_extendqisi2
 167:Drivers/My_Drivers/src/driver_oled.c **** 	for (i = 0; String[i] != '\0'; i++)
 646              		.loc 1 167 2 discriminator 1 view .LVU136
 647 001c 002A     		cmp	r2, #0
 648 001e F5D1     		bne	.L42
 170:Drivers/My_Drivers/src/driver_oled.c **** 	}
 171:Drivers/My_Drivers/src/driver_oled.c **** }
 649              		.loc 1 171 1 view .LVU137
 650 0020 F8BD     		pop	{r3, r4, r5, r6, r7, pc}
 651              		.loc 1 171 1 view .LVU138
 652              		.cfi_endproc
 653              	.LFE76:
 655              		.section	.text.OLED_Pow,"ax",%progbits
 656              		.align	1
 657              		.global	OLED_Pow
 658              		.syntax unified
 659              		.thumb
 660              		.thumb_func
 662              	OLED_Pow:
 663              	.LVL71:
 664              	.LFB77:
 172:Drivers/My_Drivers/src/driver_oled.c **** 
 173:Drivers/My_Drivers/src/driver_oled.c **** /**
 174:Drivers/My_Drivers/src/driver_oled.c ****   * @brief  OLED次方函数
 175:Drivers/My_Drivers/src/driver_oled.c ****   * @retval 返回值等于X的Y次方
 176:Drivers/My_Drivers/src/driver_oled.c ****   */
 177:Drivers/My_Drivers/src/driver_oled.c **** uint32_t OLED_Pow(uint32_t X, uint32_t Y)
 178:Drivers/My_Drivers/src/driver_oled.c **** {
 665              		.loc 1 178 1 is_stmt 1 view -0
 666              		.cfi_startproc
 667              		@ args = 0, pretend = 0, frame = 0
ARM GAS  C:\Users\26927\AppData\Local\Temp\cck5sGic.s 			page 16


 668              		@ frame_needed = 0, uses_anonymous_args = 0
 669              		@ link register save eliminated.
 670              		.loc 1 178 1 is_stmt 0 view .LVU140
 671 0000 0246     		mov	r2, r0
 179:Drivers/My_Drivers/src/driver_oled.c **** 	uint32_t Result = 1;
 672              		.loc 1 179 2 is_stmt 1 view .LVU141
 673              	.LVL72:
 180:Drivers/My_Drivers/src/driver_oled.c **** 	while (Y--)
 674              		.loc 1 180 2 view .LVU142
 179:Drivers/My_Drivers/src/driver_oled.c **** 	uint32_t Result = 1;
 675              		.loc 1 179 11 is_stmt 0 view .LVU143
 676 0002 0120     		movs	r0, #1
 677              	.LVL73:
 678              		.loc 1 180 8 view .LVU144
 679 0004 02E0     		b	.L45
 680              	.LVL74:
 681              	.L46:
 181:Drivers/My_Drivers/src/driver_oled.c **** 	{
 182:Drivers/My_Drivers/src/driver_oled.c **** 		Result *= X;
 682              		.loc 1 182 3 is_stmt 1 view .LVU145
 683              		.loc 1 182 10 is_stmt 0 view .LVU146
 684 0006 02FB00F0 		mul	r0, r2, r0
 685              	.LVL75:
 180:Drivers/My_Drivers/src/driver_oled.c **** 	while (Y--)
 686              		.loc 1 180 10 view .LVU147
 687 000a 1946     		mov	r1, r3
 688              	.LVL76:
 689              	.L45:
 180:Drivers/My_Drivers/src/driver_oled.c **** 	while (Y--)
 690              		.loc 1 180 8 is_stmt 1 view .LVU148
 180:Drivers/My_Drivers/src/driver_oled.c **** 	while (Y--)
 691              		.loc 1 180 10 is_stmt 0 view .LVU149
 692 000c 4B1E     		subs	r3, r1, #1
 693              	.LVL77:
 180:Drivers/My_Drivers/src/driver_oled.c **** 	while (Y--)
 694              		.loc 1 180 8 view .LVU150
 695 000e 0029     		cmp	r1, #0
 696 0010 F9D1     		bne	.L46
 183:Drivers/My_Drivers/src/driver_oled.c **** 	}
 184:Drivers/My_Drivers/src/driver_oled.c **** 	return Result;
 697              		.loc 1 184 2 is_stmt 1 view .LVU151
 185:Drivers/My_Drivers/src/driver_oled.c **** }
 698              		.loc 1 185 1 is_stmt 0 view .LVU152
 699 0012 7047     		bx	lr
 700              		.cfi_endproc
 701              	.LFE77:
 703              		.section	.text.OLED_ShowNum,"ax",%progbits
 704              		.align	1
 705              		.global	OLED_ShowNum
 706              		.syntax unified
 707              		.thumb
 708              		.thumb_func
 710              	OLED_ShowNum:
 711              	.LVL78:
 712              	.LFB78:
 186:Drivers/My_Drivers/src/driver_oled.c **** 
 187:Drivers/My_Drivers/src/driver_oled.c **** /**
ARM GAS  C:\Users\26927\AppData\Local\Temp\cck5sGic.s 			page 17


 188:Drivers/My_Drivers/src/driver_oled.c ****   * @brief  OLED显示数字（十进制，正数）
 189:Drivers/My_Drivers/src/driver_oled.c ****   * @param  Line 起始行位置，范围：1~4
 190:Drivers/My_Drivers/src/driver_oled.c ****   * @param  Column 起始列位置，范围：1~16
 191:Drivers/My_Drivers/src/driver_oled.c ****   * @param  Number 要显示的数字，范围：0~4294967295
 192:Drivers/My_Drivers/src/driver_oled.c ****   * @param  Length 要显示数字的长度，范围：1~10
 193:Drivers/My_Drivers/src/driver_oled.c ****   * @retval 无
 194:Drivers/My_Drivers/src/driver_oled.c ****   */
 195:Drivers/My_Drivers/src/driver_oled.c **** void OLED_ShowNum(uint8_t Line, uint8_t Column, uint32_t Number, uint8_t Length)
 196:Drivers/My_Drivers/src/driver_oled.c **** {
 713              		.loc 1 196 1 is_stmt 1 view -0
 714              		.cfi_startproc
 715              		@ args = 0, pretend = 0, frame = 0
 716              		@ frame_needed = 0, uses_anonymous_args = 0
 717              		.loc 1 196 1 is_stmt 0 view .LVU154
 718 0000 2DE9F843 		push	{r3, r4, r5, r6, r7, r8, r9, lr}
 719              	.LCFI12:
 720              		.cfi_def_cfa_offset 32
 721              		.cfi_offset 3, -32
 722              		.cfi_offset 4, -28
 723              		.cfi_offset 5, -24
 724              		.cfi_offset 6, -20
 725              		.cfi_offset 7, -16
 726              		.cfi_offset 8, -12
 727              		.cfi_offset 9, -8
 728              		.cfi_offset 14, -4
 729 0004 8146     		mov	r9, r0
 730 0006 8846     		mov	r8, r1
 731 0008 1746     		mov	r7, r2
 732 000a 1E46     		mov	r6, r3
 197:Drivers/My_Drivers/src/driver_oled.c **** 	uint8_t i;
 733              		.loc 1 197 2 is_stmt 1 view .LVU155
 198:Drivers/My_Drivers/src/driver_oled.c **** 	for (i = 0; i < Length; i++)							
 734              		.loc 1 198 2 view .LVU156
 735              	.LVL79:
 736              		.loc 1 198 9 is_stmt 0 view .LVU157
 737 000c 0024     		movs	r4, #0
 738              		.loc 1 198 2 view .LVU158
 739 000e 19E0     		b	.L48
 740              	.LVL80:
 741              	.L49:
 199:Drivers/My_Drivers/src/driver_oled.c **** 	{
 200:Drivers/My_Drivers/src/driver_oled.c **** 		OLED_ShowChar(Line, Column + i, Number / OLED_Pow(10, Length - i - 1) % 10 + '0');
 742              		.loc 1 200 3 is_stmt 1 discriminator 3 view .LVU159
 743 0010 04EB0805 		add	r5, r4, r8
 744 0014 EDB2     		uxtb	r5, r5
 745              		.loc 1 200 64 is_stmt 0 discriminator 3 view .LVU160
 746 0016 311B     		subs	r1, r6, r4
 747              		.loc 1 200 44 discriminator 3 view .LVU161
 748 0018 0139     		subs	r1, r1, #1
 749 001a 0A20     		movs	r0, #10
 750 001c FFF7FEFF 		bl	OLED_Pow
 751              	.LVL81:
 752              		.loc 1 200 42 discriminator 3 view .LVU162
 753 0020 B7FBF0F0 		udiv	r0, r7, r0
 754              		.loc 1 200 73 discriminator 3 view .LVU163
 755 0024 094A     		ldr	r2, .L51
 756 0026 A2FB0032 		umull	r3, r2, r2, r0
ARM GAS  C:\Users\26927\AppData\Local\Temp\cck5sGic.s 			page 18


 757 002a D208     		lsrs	r2, r2, #3
 758 002c 02EB8202 		add	r2, r2, r2, lsl #2
 759 0030 A0EB4202 		sub	r2, r0, r2, lsl #1
 760              		.loc 1 200 3 discriminator 3 view .LVU164
 761 0034 3032     		adds	r2, r2, #48
 762 0036 D2B2     		uxtb	r2, r2
 763 0038 2946     		mov	r1, r5
 764 003a 4846     		mov	r0, r9
 765 003c FFF7FEFF 		bl	OLED_ShowChar
 766              	.LVL82:
 198:Drivers/My_Drivers/src/driver_oled.c **** 	for (i = 0; i < Length; i++)							
 767              		.loc 1 198 26 is_stmt 1 discriminator 3 view .LVU165
 198:Drivers/My_Drivers/src/driver_oled.c **** 	for (i = 0; i < Length; i++)							
 768              		.loc 1 198 27 is_stmt 0 discriminator 3 view .LVU166
 769 0040 0134     		adds	r4, r4, #1
 770              	.LVL83:
 198:Drivers/My_Drivers/src/driver_oled.c **** 	for (i = 0; i < Length; i++)							
 771              		.loc 1 198 27 discriminator 3 view .LVU167
 772 0042 E4B2     		uxtb	r4, r4
 773              	.LVL84:
 774              	.L48:
 198:Drivers/My_Drivers/src/driver_oled.c **** 	for (i = 0; i < Length; i++)							
 775              		.loc 1 198 14 is_stmt 1 discriminator 1 view .LVU168
 198:Drivers/My_Drivers/src/driver_oled.c **** 	for (i = 0; i < Length; i++)							
 776              		.loc 1 198 2 is_stmt 0 discriminator 1 view .LVU169
 777 0044 B442     		cmp	r4, r6
 778 0046 E3D3     		bcc	.L49
 201:Drivers/My_Drivers/src/driver_oled.c **** 	}
 202:Drivers/My_Drivers/src/driver_oled.c **** }
 779              		.loc 1 202 1 view .LVU170
 780 0048 BDE8F883 		pop	{r3, r4, r5, r6, r7, r8, r9, pc}
 781              	.LVL85:
 782              	.L52:
 783              		.loc 1 202 1 view .LVU171
 784              		.align	2
 785              	.L51:
 786 004c CDCCCCCC 		.word	-858993459
 787              		.cfi_endproc
 788              	.LFE78:
 790              		.section	.text.OLED_ShowSignedNum,"ax",%progbits
 791              		.align	1
 792              		.global	OLED_ShowSignedNum
 793              		.syntax unified
 794              		.thumb
 795              		.thumb_func
 797              	OLED_ShowSignedNum:
 798              	.LVL86:
 799              	.LFB79:
 203:Drivers/My_Drivers/src/driver_oled.c **** 
 204:Drivers/My_Drivers/src/driver_oled.c **** /**
 205:Drivers/My_Drivers/src/driver_oled.c ****   * @brief  OLED显示数字（十进制，带符号数）
 206:Drivers/My_Drivers/src/driver_oled.c ****   * @param  Line 起始行位置，范围：1~4
 207:Drivers/My_Drivers/src/driver_oled.c ****   * @param  Column 起始列位置，范围：1~16
 208:Drivers/My_Drivers/src/driver_oled.c ****   * @param  Number 要显示的数字，范围：-2147483648~2147483647
 209:Drivers/My_Drivers/src/driver_oled.c ****   * @param  Length 要显示数字的长度，范围：1~10
 210:Drivers/My_Drivers/src/driver_oled.c ****   * @retval 无
 211:Drivers/My_Drivers/src/driver_oled.c ****   */
ARM GAS  C:\Users\26927\AppData\Local\Temp\cck5sGic.s 			page 19


 212:Drivers/My_Drivers/src/driver_oled.c **** void OLED_ShowSignedNum(uint8_t Line, uint8_t Column, int32_t Number, uint8_t Length)
 213:Drivers/My_Drivers/src/driver_oled.c **** {
 800              		.loc 1 213 1 is_stmt 1 view -0
 801              		.cfi_startproc
 802              		@ args = 0, pretend = 0, frame = 0
 803              		@ frame_needed = 0, uses_anonymous_args = 0
 804              		.loc 1 213 1 is_stmt 0 view .LVU173
 805 0000 2DE9F843 		push	{r3, r4, r5, r6, r7, r8, r9, lr}
 806              	.LCFI13:
 807              		.cfi_def_cfa_offset 32
 808              		.cfi_offset 3, -32
 809              		.cfi_offset 4, -28
 810              		.cfi_offset 5, -24
 811              		.cfi_offset 6, -20
 812              		.cfi_offset 7, -16
 813              		.cfi_offset 8, -12
 814              		.cfi_offset 9, -8
 815              		.cfi_offset 14, -4
 816 0004 8046     		mov	r8, r0
 817 0006 8946     		mov	r9, r1
 818 0008 1E46     		mov	r6, r3
 214:Drivers/My_Drivers/src/driver_oled.c **** 	uint8_t i;
 819              		.loc 1 214 2 is_stmt 1 view .LVU174
 215:Drivers/My_Drivers/src/driver_oled.c **** 	uint32_t Number1;
 820              		.loc 1 215 2 view .LVU175
 216:Drivers/My_Drivers/src/driver_oled.c **** 	if (Number >= 0)
 821              		.loc 1 216 2 view .LVU176
 822              		.loc 1 216 5 is_stmt 0 view .LVU177
 823 000a 171E     		subs	r7, r2, #0
 824 000c 04DB     		blt	.L54
 217:Drivers/My_Drivers/src/driver_oled.c **** 	{
 218:Drivers/My_Drivers/src/driver_oled.c **** 		OLED_ShowChar(Line, Column, '+');
 825              		.loc 1 218 3 is_stmt 1 view .LVU178
 826 000e 2B22     		movs	r2, #43
 827              	.LVL87:
 828              		.loc 1 218 3 is_stmt 0 view .LVU179
 829 0010 FFF7FEFF 		bl	OLED_ShowChar
 830              	.LVL88:
 219:Drivers/My_Drivers/src/driver_oled.c **** 		Number1 = Number;
 831              		.loc 1 219 3 is_stmt 1 view .LVU180
 832              	.L55:
 220:Drivers/My_Drivers/src/driver_oled.c **** 	}
 221:Drivers/My_Drivers/src/driver_oled.c **** 	else
 222:Drivers/My_Drivers/src/driver_oled.c **** 	{
 223:Drivers/My_Drivers/src/driver_oled.c **** 		OLED_ShowChar(Line, Column, '-');
 224:Drivers/My_Drivers/src/driver_oled.c **** 		Number1 = -Number;
 225:Drivers/My_Drivers/src/driver_oled.c **** 	}
 226:Drivers/My_Drivers/src/driver_oled.c **** 	for (i = 0; i < Length; i++)							
 833              		.loc 1 226 2 view .LVU181
 834              		.loc 1 226 9 is_stmt 0 view .LVU182
 835 0014 0024     		movs	r4, #0
 836              		.loc 1 226 2 view .LVU183
 837 0016 1FE0     		b	.L56
 838              	.LVL89:
 839              	.L54:
 223:Drivers/My_Drivers/src/driver_oled.c **** 		Number1 = -Number;
 840              		.loc 1 223 3 is_stmt 1 view .LVU184
ARM GAS  C:\Users\26927\AppData\Local\Temp\cck5sGic.s 			page 20


 841 0018 2D22     		movs	r2, #45
 842              	.LVL90:
 223:Drivers/My_Drivers/src/driver_oled.c **** 		Number1 = -Number;
 843              		.loc 1 223 3 is_stmt 0 view .LVU185
 844 001a FFF7FEFF 		bl	OLED_ShowChar
 845              	.LVL91:
 224:Drivers/My_Drivers/src/driver_oled.c **** 	}
 846              		.loc 1 224 3 is_stmt 1 view .LVU186
 224:Drivers/My_Drivers/src/driver_oled.c **** 	}
 847              		.loc 1 224 13 is_stmt 0 view .LVU187
 848 001e 7F42     		rsbs	r7, r7, #0
 849              	.LVL92:
 224:Drivers/My_Drivers/src/driver_oled.c **** 	}
 850              		.loc 1 224 13 view .LVU188
 851 0020 F8E7     		b	.L55
 852              	.LVL93:
 853              	.L57:
 227:Drivers/My_Drivers/src/driver_oled.c **** 	{
 228:Drivers/My_Drivers/src/driver_oled.c **** 		OLED_ShowChar(Line, Column + i + 1, Number1 / OLED_Pow(10, Length - i - 1) % 10 + '0');
 854              		.loc 1 228 3 is_stmt 1 discriminator 3 view .LVU189
 855              		.loc 1 228 30 is_stmt 0 discriminator 3 view .LVU190
 856 0022 04EB0905 		add	r5, r4, r9
 857 0026 EDB2     		uxtb	r5, r5
 858              		.loc 1 228 69 discriminator 3 view .LVU191
 859 0028 311B     		subs	r1, r6, r4
 860              		.loc 1 228 49 discriminator 3 view .LVU192
 861 002a 0139     		subs	r1, r1, #1
 862 002c 0A20     		movs	r0, #10
 863 002e FFF7FEFF 		bl	OLED_Pow
 864              	.LVL94:
 865              		.loc 1 228 47 discriminator 3 view .LVU193
 866 0032 B7FBF0F0 		udiv	r0, r7, r0
 867              		.loc 1 228 78 discriminator 3 view .LVU194
 868 0036 0A4A     		ldr	r2, .L59
 869 0038 A2FB0032 		umull	r3, r2, r2, r0
 870 003c D208     		lsrs	r2, r2, #3
 871 003e 02EB8202 		add	r2, r2, r2, lsl #2
 872 0042 A0EB4202 		sub	r2, r0, r2, lsl #1
 873              		.loc 1 228 3 discriminator 3 view .LVU195
 874 0046 3032     		adds	r2, r2, #48
 875 0048 691C     		adds	r1, r5, #1
 876 004a D2B2     		uxtb	r2, r2
 877 004c C9B2     		uxtb	r1, r1
 878 004e 4046     		mov	r0, r8
 879 0050 FFF7FEFF 		bl	OLED_ShowChar
 880              	.LVL95:
 226:Drivers/My_Drivers/src/driver_oled.c **** 	{
 881              		.loc 1 226 26 is_stmt 1 discriminator 3 view .LVU196
 226:Drivers/My_Drivers/src/driver_oled.c **** 	{
 882              		.loc 1 226 27 is_stmt 0 discriminator 3 view .LVU197
 883 0054 0134     		adds	r4, r4, #1
 884              	.LVL96:
 226:Drivers/My_Drivers/src/driver_oled.c **** 	{
 885              		.loc 1 226 27 discriminator 3 view .LVU198
 886 0056 E4B2     		uxtb	r4, r4
 887              	.LVL97:
 888              	.L56:
ARM GAS  C:\Users\26927\AppData\Local\Temp\cck5sGic.s 			page 21


 226:Drivers/My_Drivers/src/driver_oled.c **** 	{
 889              		.loc 1 226 14 is_stmt 1 discriminator 1 view .LVU199
 226:Drivers/My_Drivers/src/driver_oled.c **** 	{
 890              		.loc 1 226 2 is_stmt 0 discriminator 1 view .LVU200
 891 0058 B442     		cmp	r4, r6
 892 005a E2D3     		bcc	.L57
 229:Drivers/My_Drivers/src/driver_oled.c **** 	}
 230:Drivers/My_Drivers/src/driver_oled.c **** }
 893              		.loc 1 230 1 view .LVU201
 894 005c BDE8F883 		pop	{r3, r4, r5, r6, r7, r8, r9, pc}
 895              	.LVL98:
 896              	.L60:
 897              		.loc 1 230 1 view .LVU202
 898              		.align	2
 899              	.L59:
 900 0060 CDCCCCCC 		.word	-858993459
 901              		.cfi_endproc
 902              	.LFE79:
 904              		.section	.text.OLED_ShowHexNum,"ax",%progbits
 905              		.align	1
 906              		.global	OLED_ShowHexNum
 907              		.syntax unified
 908              		.thumb
 909              		.thumb_func
 911              	OLED_ShowHexNum:
 912              	.LVL99:
 913              	.LFB80:
 231:Drivers/My_Drivers/src/driver_oled.c **** 
 232:Drivers/My_Drivers/src/driver_oled.c **** /**
 233:Drivers/My_Drivers/src/driver_oled.c ****   * @brief  OLED显示数字（十六进制，正数）
 234:Drivers/My_Drivers/src/driver_oled.c ****   * @param  Line 起始行位置，范围：1~4
 235:Drivers/My_Drivers/src/driver_oled.c ****   * @param  Column 起始列位置，范围：1~16
 236:Drivers/My_Drivers/src/driver_oled.c ****   * @param  Number 要显示的数字，范围：0~0xFFFFFFFF
 237:Drivers/My_Drivers/src/driver_oled.c ****   * @param  Length 要显示数字的长度，范围：1~8
 238:Drivers/My_Drivers/src/driver_oled.c ****   * @retval 无
 239:Drivers/My_Drivers/src/driver_oled.c ****   */
 240:Drivers/My_Drivers/src/driver_oled.c **** void OLED_ShowHexNum(uint8_t Line, uint8_t Column, uint32_t Number, uint8_t Length)
 241:Drivers/My_Drivers/src/driver_oled.c **** {
 914              		.loc 1 241 1 is_stmt 1 view -0
 915              		.cfi_startproc
 916              		@ args = 0, pretend = 0, frame = 0
 917              		@ frame_needed = 0, uses_anonymous_args = 0
 918              		.loc 1 241 1 is_stmt 0 view .LVU204
 919 0000 2DE9F041 		push	{r4, r5, r6, r7, r8, lr}
 920              	.LCFI14:
 921              		.cfi_def_cfa_offset 24
 922              		.cfi_offset 4, -24
 923              		.cfi_offset 5, -20
 924              		.cfi_offset 6, -16
 925              		.cfi_offset 7, -12
 926              		.cfi_offset 8, -8
 927              		.cfi_offset 14, -4
 928 0004 8046     		mov	r8, r0
 929 0006 0F46     		mov	r7, r1
 930 0008 1646     		mov	r6, r2
 931 000a 1D46     		mov	r5, r3
 242:Drivers/My_Drivers/src/driver_oled.c **** 	uint8_t i, SingleNumber;
ARM GAS  C:\Users\26927\AppData\Local\Temp\cck5sGic.s 			page 22


 932              		.loc 1 242 2 is_stmt 1 view .LVU205
 243:Drivers/My_Drivers/src/driver_oled.c **** 	for (i = 0; i < Length; i++)							
 933              		.loc 1 243 2 view .LVU206
 934              	.LVL100:
 935              		.loc 1 243 9 is_stmt 0 view .LVU207
 936 000c 0024     		movs	r4, #0
 937              		.loc 1 243 2 view .LVU208
 938 000e 07E0     		b	.L62
 939              	.LVL101:
 940              	.L63:
 244:Drivers/My_Drivers/src/driver_oled.c **** 	{
 245:Drivers/My_Drivers/src/driver_oled.c **** 		SingleNumber = Number / OLED_Pow(16, Length - i - 1) % 16;
 246:Drivers/My_Drivers/src/driver_oled.c **** 		if (SingleNumber < 10)
 247:Drivers/My_Drivers/src/driver_oled.c **** 		{
 248:Drivers/My_Drivers/src/driver_oled.c **** 			OLED_ShowChar(Line, Column + i, SingleNumber + '0');
 249:Drivers/My_Drivers/src/driver_oled.c **** 		}
 250:Drivers/My_Drivers/src/driver_oled.c **** 		else
 251:Drivers/My_Drivers/src/driver_oled.c **** 		{
 252:Drivers/My_Drivers/src/driver_oled.c **** 			OLED_ShowChar(Line, Column + i, SingleNumber - 10 + 'A');
 941              		.loc 1 252 4 is_stmt 1 view .LVU209
 942 0010 E119     		adds	r1, r4, r7
 943 0012 3732     		adds	r2, r2, #55
 944              	.LVL102:
 945              		.loc 1 252 4 is_stmt 0 view .LVU210
 946 0014 C9B2     		uxtb	r1, r1
 947 0016 4046     		mov	r0, r8
 948 0018 FFF7FEFF 		bl	OLED_ShowChar
 949              	.LVL103:
 950              	.L64:
 243:Drivers/My_Drivers/src/driver_oled.c **** 	for (i = 0; i < Length; i++)							
 951              		.loc 1 243 26 is_stmt 1 discriminator 2 view .LVU211
 243:Drivers/My_Drivers/src/driver_oled.c **** 	for (i = 0; i < Length; i++)							
 952              		.loc 1 243 27 is_stmt 0 discriminator 2 view .LVU212
 953 001c 0134     		adds	r4, r4, #1
 954              	.LVL104:
 243:Drivers/My_Drivers/src/driver_oled.c **** 	for (i = 0; i < Length; i++)							
 955              		.loc 1 243 27 discriminator 2 view .LVU213
 956 001e E4B2     		uxtb	r4, r4
 957              	.LVL105:
 958              	.L62:
 243:Drivers/My_Drivers/src/driver_oled.c **** 	for (i = 0; i < Length; i++)							
 959              		.loc 1 243 14 is_stmt 1 discriminator 1 view .LVU214
 243:Drivers/My_Drivers/src/driver_oled.c **** 	for (i = 0; i < Length; i++)							
 960              		.loc 1 243 2 is_stmt 0 discriminator 1 view .LVU215
 961 0020 AC42     		cmp	r4, r5
 962 0022 11D2     		bcs	.L67
 245:Drivers/My_Drivers/src/driver_oled.c **** 		if (SingleNumber < 10)
 963              		.loc 1 245 3 is_stmt 1 view .LVU216
 245:Drivers/My_Drivers/src/driver_oled.c **** 		if (SingleNumber < 10)
 964              		.loc 1 245 47 is_stmt 0 view .LVU217
 965 0024 291B     		subs	r1, r5, r4
 245:Drivers/My_Drivers/src/driver_oled.c **** 		if (SingleNumber < 10)
 966              		.loc 1 245 27 view .LVU218
 967 0026 0139     		subs	r1, r1, #1
 968 0028 1020     		movs	r0, #16
 969 002a FFF7FEFF 		bl	OLED_Pow
 970              	.LVL106:
ARM GAS  C:\Users\26927\AppData\Local\Temp\cck5sGic.s 			page 23


 245:Drivers/My_Drivers/src/driver_oled.c **** 		if (SingleNumber < 10)
 971              		.loc 1 245 25 view .LVU219
 972 002e B6FBF0F2 		udiv	r2, r6, r0
 245:Drivers/My_Drivers/src/driver_oled.c **** 		if (SingleNumber < 10)
 973              		.loc 1 245 16 view .LVU220
 974 0032 02F00F02 		and	r2, r2, #15
 975              	.LVL107:
 246:Drivers/My_Drivers/src/driver_oled.c **** 		{
 976              		.loc 1 246 3 is_stmt 1 view .LVU221
 246:Drivers/My_Drivers/src/driver_oled.c **** 		{
 977              		.loc 1 246 6 is_stmt 0 view .LVU222
 978 0036 092A     		cmp	r2, #9
 979 0038 EAD8     		bhi	.L63
 248:Drivers/My_Drivers/src/driver_oled.c **** 		}
 980              		.loc 1 248 4 is_stmt 1 view .LVU223
 981 003a E119     		adds	r1, r4, r7
 982 003c 3032     		adds	r2, r2, #48
 983              	.LVL108:
 248:Drivers/My_Drivers/src/driver_oled.c **** 		}
 984              		.loc 1 248 4 is_stmt 0 view .LVU224
 985 003e C9B2     		uxtb	r1, r1
 986 0040 4046     		mov	r0, r8
 987 0042 FFF7FEFF 		bl	OLED_ShowChar
 988              	.LVL109:
 248:Drivers/My_Drivers/src/driver_oled.c **** 		}
 989              		.loc 1 248 4 view .LVU225
 990 0046 E9E7     		b	.L64
 991              	.L67:
 253:Drivers/My_Drivers/src/driver_oled.c **** 		}
 254:Drivers/My_Drivers/src/driver_oled.c **** 	}
 255:Drivers/My_Drivers/src/driver_oled.c **** }
 992              		.loc 1 255 1 view .LVU226
 993 0048 BDE8F081 		pop	{r4, r5, r6, r7, r8, pc}
 994              		.loc 1 255 1 view .LVU227
 995              		.cfi_endproc
 996              	.LFE80:
 998              		.section	.text.OLED_ShowBinNum,"ax",%progbits
 999              		.align	1
 1000              		.global	OLED_ShowBinNum
 1001              		.syntax unified
 1002              		.thumb
 1003              		.thumb_func
 1005              	OLED_ShowBinNum:
 1006              	.LVL110:
 1007              	.LFB81:
 256:Drivers/My_Drivers/src/driver_oled.c **** 
 257:Drivers/My_Drivers/src/driver_oled.c **** /**
 258:Drivers/My_Drivers/src/driver_oled.c ****   * @brief  OLED显示数字（二进制，正数）
 259:Drivers/My_Drivers/src/driver_oled.c ****   * @param  Line 起始行位置，范围：1~4
 260:Drivers/My_Drivers/src/driver_oled.c ****   * @param  Column 起始列位置，范围：1~16
 261:Drivers/My_Drivers/src/driver_oled.c ****   * @param  Number 要显示的数字，范围：0~1111 1111 1111 1111
 262:Drivers/My_Drivers/src/driver_oled.c ****   * @param  Length 要显示数字的长度，范围：1~16
 263:Drivers/My_Drivers/src/driver_oled.c ****   * @retval 无
 264:Drivers/My_Drivers/src/driver_oled.c ****   */
 265:Drivers/My_Drivers/src/driver_oled.c **** void OLED_ShowBinNum(uint8_t Line, uint8_t Column, uint32_t Number, uint8_t Length)
 266:Drivers/My_Drivers/src/driver_oled.c **** {
 1008              		.loc 1 266 1 is_stmt 1 view -0
ARM GAS  C:\Users\26927\AppData\Local\Temp\cck5sGic.s 			page 24


 1009              		.cfi_startproc
 1010              		@ args = 0, pretend = 0, frame = 0
 1011              		@ frame_needed = 0, uses_anonymous_args = 0
 1012              		.loc 1 266 1 is_stmt 0 view .LVU229
 1013 0000 2DE9F843 		push	{r3, r4, r5, r6, r7, r8, r9, lr}
 1014              	.LCFI15:
 1015              		.cfi_def_cfa_offset 32
 1016              		.cfi_offset 3, -32
 1017              		.cfi_offset 4, -28
 1018              		.cfi_offset 5, -24
 1019              		.cfi_offset 6, -20
 1020              		.cfi_offset 7, -16
 1021              		.cfi_offset 8, -12
 1022              		.cfi_offset 9, -8
 1023              		.cfi_offset 14, -4
 1024 0004 8146     		mov	r9, r0
 1025 0006 8846     		mov	r8, r1
 1026 0008 1746     		mov	r7, r2
 1027 000a 1E46     		mov	r6, r3
 267:Drivers/My_Drivers/src/driver_oled.c **** 	uint8_t i;
 1028              		.loc 1 267 2 is_stmt 1 view .LVU230
 268:Drivers/My_Drivers/src/driver_oled.c **** 	for (i = 0; i < Length; i++)							
 1029              		.loc 1 268 2 view .LVU231
 1030              	.LVL111:
 1031              		.loc 1 268 9 is_stmt 0 view .LVU232
 1032 000c 0024     		movs	r4, #0
 1033              		.loc 1 268 2 view .LVU233
 1034 000e 12E0     		b	.L69
 1035              	.LVL112:
 1036              	.L70:
 269:Drivers/My_Drivers/src/driver_oled.c **** 	{
 270:Drivers/My_Drivers/src/driver_oled.c **** 		OLED_ShowChar(Line, Column + i, Number / OLED_Pow(2, Length - i - 1) % 2 + '0');
 1037              		.loc 1 270 3 is_stmt 1 discriminator 3 view .LVU234
 1038 0010 04EB0805 		add	r5, r4, r8
 1039 0014 EDB2     		uxtb	r5, r5
 1040              		.loc 1 270 63 is_stmt 0 discriminator 3 view .LVU235
 1041 0016 311B     		subs	r1, r6, r4
 1042              		.loc 1 270 44 discriminator 3 view .LVU236
 1043 0018 0139     		subs	r1, r1, #1
 1044 001a 0220     		movs	r0, #2
 1045 001c FFF7FEFF 		bl	OLED_Pow
 1046              	.LVL113:
 1047              		.loc 1 270 42 discriminator 3 view .LVU237
 1048 0020 B7FBF0F2 		udiv	r2, r7, r0
 1049              		.loc 1 270 72 discriminator 3 view .LVU238
 1050 0024 02F00102 		and	r2, r2, #1
 1051              		.loc 1 270 3 discriminator 3 view .LVU239
 1052 0028 3032     		adds	r2, r2, #48
 1053 002a 2946     		mov	r1, r5
 1054 002c 4846     		mov	r0, r9
 1055 002e FFF7FEFF 		bl	OLED_ShowChar
 1056              	.LVL114:
 268:Drivers/My_Drivers/src/driver_oled.c **** 	for (i = 0; i < Length; i++)							
 1057              		.loc 1 268 26 is_stmt 1 discriminator 3 view .LVU240
 268:Drivers/My_Drivers/src/driver_oled.c **** 	for (i = 0; i < Length; i++)							
 1058              		.loc 1 268 27 is_stmt 0 discriminator 3 view .LVU241
 1059 0032 0134     		adds	r4, r4, #1
ARM GAS  C:\Users\26927\AppData\Local\Temp\cck5sGic.s 			page 25


 1060              	.LVL115:
 268:Drivers/My_Drivers/src/driver_oled.c **** 	for (i = 0; i < Length; i++)							
 1061              		.loc 1 268 27 discriminator 3 view .LVU242
 1062 0034 E4B2     		uxtb	r4, r4
 1063              	.LVL116:
 1064              	.L69:
 268:Drivers/My_Drivers/src/driver_oled.c **** 	for (i = 0; i < Length; i++)							
 1065              		.loc 1 268 14 is_stmt 1 discriminator 1 view .LVU243
 268:Drivers/My_Drivers/src/driver_oled.c **** 	for (i = 0; i < Length; i++)							
 1066              		.loc 1 268 2 is_stmt 0 discriminator 1 view .LVU244
 1067 0036 B442     		cmp	r4, r6
 1068 0038 EAD3     		bcc	.L70
 271:Drivers/My_Drivers/src/driver_oled.c **** 	}
 272:Drivers/My_Drivers/src/driver_oled.c **** }
 1069              		.loc 1 272 1 view .LVU245
 1070 003a BDE8F883 		pop	{r3, r4, r5, r6, r7, r8, r9, pc}
 1071              		.loc 1 272 1 view .LVU246
 1072              		.cfi_endproc
 1073              	.LFE81:
 1075              		.section	.text.OLED_Init,"ax",%progbits
 1076              		.align	1
 1077              		.global	OLED_Init
 1078              		.syntax unified
 1079              		.thumb
 1080              		.thumb_func
 1082              	OLED_Init:
 1083              	.LFB82:
 273:Drivers/My_Drivers/src/driver_oled.c **** 
 274:Drivers/My_Drivers/src/driver_oled.c **** /**
 275:Drivers/My_Drivers/src/driver_oled.c ****   * @brief  OLED初始化
 276:Drivers/My_Drivers/src/driver_oled.c ****   * @param  无
 277:Drivers/My_Drivers/src/driver_oled.c ****   * @retval 无
 278:Drivers/My_Drivers/src/driver_oled.c ****   */
 279:Drivers/My_Drivers/src/driver_oled.c **** void OLED_Init(void)
 280:Drivers/My_Drivers/src/driver_oled.c **** {
 1084              		.loc 1 280 1 is_stmt 1 view -0
 1085              		.cfi_startproc
 1086              		@ args = 0, pretend = 0, frame = 0
 1087              		@ frame_needed = 0, uses_anonymous_args = 0
 1088 0000 08B5     		push	{r3, lr}
 1089              	.LCFI16:
 1090              		.cfi_def_cfa_offset 8
 1091              		.cfi_offset 3, -8
 1092              		.cfi_offset 14, -4
 281:Drivers/My_Drivers/src/driver_oled.c **** 	uint32_t i, j;
 1093              		.loc 1 281 2 view .LVU248
 282:Drivers/My_Drivers/src/driver_oled.c **** 	
 283:Drivers/My_Drivers/src/driver_oled.c **** 	for (i = 0; i < 1000; i++)			//上电延时
 1094              		.loc 1 283 2 view .LVU249
 1095              	.LVL117:
 1096              		.loc 1 283 9 is_stmt 0 view .LVU250
 1097 0002 0022     		movs	r2, #0
 1098              		.loc 1 283 2 view .LVU251
 1099 0004 04E0     		b	.L73
 1100              	.LVL118:
 1101              	.L74:
 284:Drivers/My_Drivers/src/driver_oled.c **** 	{
ARM GAS  C:\Users\26927\AppData\Local\Temp\cck5sGic.s 			page 26


 285:Drivers/My_Drivers/src/driver_oled.c **** 		for (j = 0; j < 1000; j++);
 1102              		.loc 1 285 29 is_stmt 1 discriminator 3 view .LVU252
 1103              		.loc 1 285 25 discriminator 3 view .LVU253
 1104              		.loc 1 285 26 is_stmt 0 discriminator 3 view .LVU254
 1105 0006 0133     		adds	r3, r3, #1
 1106              	.LVL119:
 1107              	.L75:
 1108              		.loc 1 285 15 is_stmt 1 discriminator 1 view .LVU255
 1109              		.loc 1 285 3 is_stmt 0 discriminator 1 view .LVU256
 1110 0008 B3F57A7F 		cmp	r3, #1000
 1111 000c FBD3     		bcc	.L74
 283:Drivers/My_Drivers/src/driver_oled.c **** 	{
 1112              		.loc 1 283 24 is_stmt 1 discriminator 2 view .LVU257
 283:Drivers/My_Drivers/src/driver_oled.c **** 	{
 1113              		.loc 1 283 25 is_stmt 0 discriminator 2 view .LVU258
 1114 000e 0132     		adds	r2, r2, #1
 1115              	.LVL120:
 1116              	.L73:
 283:Drivers/My_Drivers/src/driver_oled.c **** 	{
 1117              		.loc 1 283 14 is_stmt 1 discriminator 1 view .LVU259
 283:Drivers/My_Drivers/src/driver_oled.c **** 	{
 1118              		.loc 1 283 2 is_stmt 0 discriminator 1 view .LVU260
 1119 0010 B2F57A7F 		cmp	r2, #1000
 1120 0014 01D2     		bcs	.L78
 1121              		.loc 1 285 10 view .LVU261
 1122 0016 0023     		movs	r3, #0
 1123 0018 F6E7     		b	.L75
 1124              	.L78:
 286:Drivers/My_Drivers/src/driver_oled.c **** 	}
 287:Drivers/My_Drivers/src/driver_oled.c **** 	
 288:Drivers/My_Drivers/src/driver_oled.c **** 	OLED_I2C_Init();			//端口初始化
 1125              		.loc 1 288 2 is_stmt 1 view .LVU262
 1126 001a FFF7FEFF 		bl	OLED_I2C_Init
 1127              	.LVL121:
 289:Drivers/My_Drivers/src/driver_oled.c **** 	
 290:Drivers/My_Drivers/src/driver_oled.c **** 	OLED_WriteCommand(0xAE);	//关闭显示
 1128              		.loc 1 290 2 view .LVU263
 1129 001e AE20     		movs	r0, #174
 1130 0020 FFF7FEFF 		bl	OLED_WriteCommand
 1131              	.LVL122:
 291:Drivers/My_Drivers/src/driver_oled.c **** 	
 292:Drivers/My_Drivers/src/driver_oled.c **** 	OLED_WriteCommand(0xD5);	//设置显示时钟分频比/振荡器频率
 1132              		.loc 1 292 2 view .LVU264
 1133 0024 D520     		movs	r0, #213
 1134 0026 FFF7FEFF 		bl	OLED_WriteCommand
 1135              	.LVL123:
 293:Drivers/My_Drivers/src/driver_oled.c **** 	OLED_WriteCommand(0x80);
 1136              		.loc 1 293 2 view .LVU265
 1137 002a 8020     		movs	r0, #128
 1138 002c FFF7FEFF 		bl	OLED_WriteCommand
 1139              	.LVL124:
 294:Drivers/My_Drivers/src/driver_oled.c **** 	
 295:Drivers/My_Drivers/src/driver_oled.c **** 	OLED_WriteCommand(0xA8);	//设置多路复用率
 1140              		.loc 1 295 2 view .LVU266
 1141 0030 A820     		movs	r0, #168
 1142 0032 FFF7FEFF 		bl	OLED_WriteCommand
 1143              	.LVL125:
ARM GAS  C:\Users\26927\AppData\Local\Temp\cck5sGic.s 			page 27


 296:Drivers/My_Drivers/src/driver_oled.c **** 	OLED_WriteCommand(0x3F);
 1144              		.loc 1 296 2 view .LVU267
 1145 0036 3F20     		movs	r0, #63
 1146 0038 FFF7FEFF 		bl	OLED_WriteCommand
 1147              	.LVL126:
 297:Drivers/My_Drivers/src/driver_oled.c **** 	
 298:Drivers/My_Drivers/src/driver_oled.c **** 	OLED_WriteCommand(0xD3);	//设置显示偏移
 1148              		.loc 1 298 2 view .LVU268
 1149 003c D320     		movs	r0, #211
 1150 003e FFF7FEFF 		bl	OLED_WriteCommand
 1151              	.LVL127:
 299:Drivers/My_Drivers/src/driver_oled.c **** 	OLED_WriteCommand(0x00);
 1152              		.loc 1 299 2 view .LVU269
 1153 0042 0020     		movs	r0, #0
 1154 0044 FFF7FEFF 		bl	OLED_WriteCommand
 1155              	.LVL128:
 300:Drivers/My_Drivers/src/driver_oled.c **** 	
 301:Drivers/My_Drivers/src/driver_oled.c **** 	OLED_WriteCommand(0x40);	//设置显示开始行
 1156              		.loc 1 301 2 view .LVU270
 1157 0048 4020     		movs	r0, #64
 1158 004a FFF7FEFF 		bl	OLED_WriteCommand
 1159              	.LVL129:
 302:Drivers/My_Drivers/src/driver_oled.c **** 	
 303:Drivers/My_Drivers/src/driver_oled.c **** 	OLED_WriteCommand(0xA1);	//设置左右方向，0xA1正常 0xA0左右反置
 1160              		.loc 1 303 2 view .LVU271
 1161 004e A120     		movs	r0, #161
 1162 0050 FFF7FEFF 		bl	OLED_WriteCommand
 1163              	.LVL130:
 304:Drivers/My_Drivers/src/driver_oled.c **** 	
 305:Drivers/My_Drivers/src/driver_oled.c **** 	OLED_WriteCommand(0xC8);	//设置上下方向，0xC8正常 0xC0上下反置
 1164              		.loc 1 305 2 view .LVU272
 1165 0054 C820     		movs	r0, #200
 1166 0056 FFF7FEFF 		bl	OLED_WriteCommand
 1167              	.LVL131:
 306:Drivers/My_Drivers/src/driver_oled.c **** 
 307:Drivers/My_Drivers/src/driver_oled.c **** 	OLED_WriteCommand(0xDA);	//设置COM引脚硬件配置
 1168              		.loc 1 307 2 view .LVU273
 1169 005a DA20     		movs	r0, #218
 1170 005c FFF7FEFF 		bl	OLED_WriteCommand
 1171              	.LVL132:
 308:Drivers/My_Drivers/src/driver_oled.c **** 	OLED_WriteCommand(0x12);
 1172              		.loc 1 308 2 view .LVU274
 1173 0060 1220     		movs	r0, #18
 1174 0062 FFF7FEFF 		bl	OLED_WriteCommand
 1175              	.LVL133:
 309:Drivers/My_Drivers/src/driver_oled.c **** 	
 310:Drivers/My_Drivers/src/driver_oled.c **** 	OLED_WriteCommand(0x81);	//设置对比度控制
 1176              		.loc 1 310 2 view .LVU275
 1177 0066 8120     		movs	r0, #129
 1178 0068 FFF7FEFF 		bl	OLED_WriteCommand
 1179              	.LVL134:
 311:Drivers/My_Drivers/src/driver_oled.c **** 	OLED_WriteCommand(0xCF);
 1180              		.loc 1 311 2 view .LVU276
 1181 006c CF20     		movs	r0, #207
 1182 006e FFF7FEFF 		bl	OLED_WriteCommand
 1183              	.LVL135:
 312:Drivers/My_Drivers/src/driver_oled.c **** 
ARM GAS  C:\Users\26927\AppData\Local\Temp\cck5sGic.s 			page 28


 313:Drivers/My_Drivers/src/driver_oled.c **** 	OLED_WriteCommand(0xD9);	//设置预充电周期
 1184              		.loc 1 313 2 view .LVU277
 1185 0072 D920     		movs	r0, #217
 1186 0074 FFF7FEFF 		bl	OLED_WriteCommand
 1187              	.LVL136:
 314:Drivers/My_Drivers/src/driver_oled.c **** 	OLED_WriteCommand(0xF1);
 1188              		.loc 1 314 2 view .LVU278
 1189 0078 F120     		movs	r0, #241
 1190 007a FFF7FEFF 		bl	OLED_WriteCommand
 1191              	.LVL137:
 315:Drivers/My_Drivers/src/driver_oled.c **** 
 316:Drivers/My_Drivers/src/driver_oled.c **** 	OLED_WriteCommand(0xDB);	//设置VCOMH取消选择级别
 1192              		.loc 1 316 2 view .LVU279
 1193 007e DB20     		movs	r0, #219
 1194 0080 FFF7FEFF 		bl	OLED_WriteCommand
 1195              	.LVL138:
 317:Drivers/My_Drivers/src/driver_oled.c **** 	OLED_WriteCommand(0x30);
 1196              		.loc 1 317 2 view .LVU280
 1197 0084 3020     		movs	r0, #48
 1198 0086 FFF7FEFF 		bl	OLED_WriteCommand
 1199              	.LVL139:
 318:Drivers/My_Drivers/src/driver_oled.c **** 
 319:Drivers/My_Drivers/src/driver_oled.c **** 	OLED_WriteCommand(0xA4);	//设置整个显示打开/关闭
 1200              		.loc 1 319 2 view .LVU281
 1201 008a A420     		movs	r0, #164
 1202 008c FFF7FEFF 		bl	OLED_WriteCommand
 1203              	.LVL140:
 320:Drivers/My_Drivers/src/driver_oled.c **** 
 321:Drivers/My_Drivers/src/driver_oled.c **** 	OLED_WriteCommand(0xA6);	//设置正常/倒转显示
 1204              		.loc 1 321 2 view .LVU282
 1205 0090 A620     		movs	r0, #166
 1206 0092 FFF7FEFF 		bl	OLED_WriteCommand
 1207              	.LVL141:
 322:Drivers/My_Drivers/src/driver_oled.c **** 
 323:Drivers/My_Drivers/src/driver_oled.c **** 	OLED_WriteCommand(0x8D);	//设置充电泵
 1208              		.loc 1 323 2 view .LVU283
 1209 0096 8D20     		movs	r0, #141
 1210 0098 FFF7FEFF 		bl	OLED_WriteCommand
 1211              	.LVL142:
 324:Drivers/My_Drivers/src/driver_oled.c **** 	OLED_WriteCommand(0x14);
 1212              		.loc 1 324 2 view .LVU284
 1213 009c 1420     		movs	r0, #20
 1214 009e FFF7FEFF 		bl	OLED_WriteCommand
 1215              	.LVL143:
 325:Drivers/My_Drivers/src/driver_oled.c **** 
 326:Drivers/My_Drivers/src/driver_oled.c **** 	OLED_WriteCommand(0xAF);	//开启显示
 1216              		.loc 1 326 2 view .LVU285
 1217 00a2 AF20     		movs	r0, #175
 1218 00a4 FFF7FEFF 		bl	OLED_WriteCommand
 1219              	.LVL144:
 327:Drivers/My_Drivers/src/driver_oled.c **** 		
 328:Drivers/My_Drivers/src/driver_oled.c **** 	OLED_Clear();				//OLED清屏
 1220              		.loc 1 328 2 view .LVU286
 1221 00a8 FFF7FEFF 		bl	OLED_Clear
 1222              	.LVL145:
 329:Drivers/My_Drivers/src/driver_oled.c **** }
 1223              		.loc 1 329 1 is_stmt 0 view .LVU287
ARM GAS  C:\Users\26927\AppData\Local\Temp\cck5sGic.s 			page 29


 1224 00ac 08BD     		pop	{r3, pc}
 1225              		.cfi_endproc
 1226              	.LFE82:
 1228              		.section	.rodata.OLED_Test.str1.4,"aMS",%progbits,1
 1229              		.align	2
 1230              	.LC0:
 1231 0000 48656C6C 		.ascii	"Hello World!\000"
 1231      6F20576F 
 1231      726C6421 
 1231      00
 1232 000d 000000   		.align	2
 1233              	.LC1:
 1234 0010 20202020 		.ascii	"            \000"
 1234      20202020 
 1234      20202020 
 1234      00
 1235              		.section	.text.OLED_Test,"ax",%progbits
 1236              		.align	1
 1237              		.global	OLED_Test
 1238              		.syntax unified
 1239              		.thumb
 1240              		.thumb_func
 1242              	OLED_Test:
 1243              	.LFB83:
 330:Drivers/My_Drivers/src/driver_oled.c **** 
 331:Drivers/My_Drivers/src/driver_oled.c **** 
 332:Drivers/My_Drivers/src/driver_oled.c **** void OLED_Test(void)
 333:Drivers/My_Drivers/src/driver_oled.c **** {
 1244              		.loc 1 333 1 is_stmt 1 view -0
 1245              		.cfi_startproc
 1246              		@ Volatile: function does not return.
 1247              		@ args = 0, pretend = 0, frame = 0
 1248              		@ frame_needed = 0, uses_anonymous_args = 0
 1249 0000 08B5     		push	{r3, lr}
 1250              	.LCFI17:
 1251              		.cfi_def_cfa_offset 8
 1252              		.cfi_offset 3, -8
 1253              		.cfi_offset 14, -4
 1254              	.L80:
 334:Drivers/My_Drivers/src/driver_oled.c **** 	while (1)
 1255              		.loc 1 334 2 discriminator 1 view .LVU289
 1256              	.LBB2:
 335:Drivers/My_Drivers/src/driver_oled.c **** 	{
 336:Drivers/My_Drivers/src/driver_oled.c **** 		OLED_ShowString(1, 1, "Hello World!");
 1257              		.loc 1 336 3 discriminator 1 view .LVU290
 1258 0002 094A     		ldr	r2, .L82
 1259 0004 0121     		movs	r1, #1
 1260 0006 0846     		mov	r0, r1
 1261 0008 FFF7FEFF 		bl	OLED_ShowString
 1262              	.LVL146:
 337:Drivers/My_Drivers/src/driver_oled.c **** 		vTaskDelay(500);
 1263              		.loc 1 337 3 discriminator 1 view .LVU291
 1264 000c 4FF4FA70 		mov	r0, #500
 1265 0010 FFF7FEFF 		bl	vTaskDelay
 1266              	.LVL147:
 338:Drivers/My_Drivers/src/driver_oled.c **** 		OLED_ShowString(1, 1, "            ");
 1267              		.loc 1 338 3 discriminator 1 view .LVU292
ARM GAS  C:\Users\26927\AppData\Local\Temp\cck5sGic.s 			page 30


 1268 0014 054A     		ldr	r2, .L82+4
 1269 0016 0121     		movs	r1, #1
 1270 0018 0846     		mov	r0, r1
 1271 001a FFF7FEFF 		bl	OLED_ShowString
 1272              	.LVL148:
 339:Drivers/My_Drivers/src/driver_oled.c **** 		mdelay(500);
 1273              		.loc 1 339 3 discriminator 1 view .LVU293
 1274 001e 4FF4FA70 		mov	r0, #500
 1275 0022 FFF7FEFF 		bl	mdelay
 1276              	.LVL149:
 1277              	.LBE2:
 334:Drivers/My_Drivers/src/driver_oled.c **** 	{
 1278              		.loc 1 334 8 discriminator 1 view .LVU294
 1279 0026 ECE7     		b	.L80
 1280              	.L83:
 1281              		.align	2
 1282              	.L82:
 1283 0028 00000000 		.word	.LC0
 1284 002c 10000000 		.word	.LC1
 1285              		.cfi_endproc
 1286              	.LFE83:
 1288              		.global	OLED_F8x16
 1289              		.section	.rodata.OLED_F8x16,"a"
 1290              		.align	2
 1291              		.set	.LANCHOR0,. + 0
 1294              	OLED_F8x16:
 1295 0000 00000000 		.ascii	"\000\000\000\000\000\000\000\000\000\000\000\000\000"
 1295      00000000 
 1295      00000000 
 1295      00
 1296 000d 000000   		.ascii	"\000\000\000"
 1297 0010 000000F8 		.ascii	"\000\000\000\370\000\000\000\000\000\000\00030\000\000"
 1297      00000000 
 1297      00000033 
 1297      300000
 1298 001f 00       		.ascii	"\000"
 1299 0020 00100C06 		.ascii	"\000\020\014\006\020\014\006\000\000\000\000\000\000"
 1299      100C0600 
 1299      00000000 
 1299      00
 1300 002d 000000   		.ascii	"\000\000\000"
 1301 0030 40C07840 		.ascii	"@\300x@\300x@\000\004?\004\004?\004\004\000"
 1301      C0784000 
 1301      043F0404 
 1301      3F040400 
 1302 0040 007088FC 		.ascii	"\000p\210\374\0100\000\000\000\030 \377!\036\000\000"
 1302      08300000 
 1302      001820FF 
 1302      211E0000 
 1303 0050 F008F000 		.ascii	"\360\010\360\000\340\030\000\000\000!\034\003\036!\036"
 1303      E0180000 
 1303      00211C03 
 1303      1E211E
 1304 005f 00       		.ascii	"\000"
 1305 0060 00F00888 		.ascii	"\000\360\010\210p\000\000\000\036!#$\031'!\020"
 1305      70000000 
 1305      1E212324 
ARM GAS  C:\Users\26927\AppData\Local\Temp\cck5sGic.s 			page 31


 1305      19272110 
 1306 0070 10160E00 		.ascii	"\020\026\016\000\000\000\000\000\000\000\000\000\000"
 1306      00000000 
 1306      00000000 
 1306      00
 1307 007d 000000   		.ascii	"\000\000\000"
 1308 0080 000000E0 		.ascii	"\000\000\000\340\030\004\002\000\000\000\000\007\030"
 1308      18040200 
 1308      00000007 
 1308      18
 1309 008d 204000   		.ascii	" @\000"
 1310 0090 00020418 		.ascii	"\000\002\004\030\340\000\000\000\000@ \030\007\000\000"
 1310      E0000000 
 1310      00402018 
 1310      070000
 1311 009f 00       		.ascii	"\000"
 1312 00a0 404080F0 		.ascii	"@@\200\360\200@@\000\002\002\001\017\001\002\002\000"
 1312      80404000 
 1312      0202010F 
 1312      01020200 
 1313 00b0 000000F0 		.ascii	"\000\000\000\360\000\000\000\000\001\001\001\037\001"
 1313      00000000 
 1313      0101011F 
 1313      01
 1314 00bd 010100   		.ascii	"\001\001\000"
 1315 00c0 00000000 		.ascii	"\000\000\000\000\000\000\000\000\200\260p\000\000\000"
 1315      00000000 
 1315      80B07000 
 1315      0000
 1316 00ce 0000     		.ascii	"\000\000"
 1317 00d0 00000000 		.ascii	"\000\000\000\000\000\000\000\000\000\001\001\001\001"
 1317      00000000 
 1317      00010101 
 1317      01
 1318 00dd 010101   		.ascii	"\001\001\001"
 1319 00e0 00000000 		.ascii	"\000\000\000\000\000\000\000\000\00000\000\000\000\000"
 1319      00000000 
 1319      00303000 
 1319      000000
 1320 00ef 00       		.ascii	"\000"
 1321 00f0 00000000 		.ascii	"\000\000\000\000\200`\030\004\000`\030\006\001\000\000"
 1321      80601804 
 1321      00601806 
 1321      010000
 1322 00ff 00       		.ascii	"\000"
 1323 0100 00E01008 		.ascii	"\000\340\020\010\010\020\340\000\000\017\020  \020\017"
 1323      0810E000 
 1323      000F1020 
 1323      20100F
 1324 010f 00       		.ascii	"\000"
 1325 0110 001010F8 		.ascii	"\000\020\020\370\000\000\000\000\000  ?  \000\000"
 1325      00000000 
 1325      0020203F 
 1325      20200000 
 1326 0120 00700808 		.ascii	"\000p\010\010\010\210p\000\0000($\"!0\000"
 1326      08887000 
 1326      00302824 
ARM GAS  C:\Users\26927\AppData\Local\Temp\cck5sGic.s 			page 32


 1326      22213000 
 1327 0130 00300888 		.ascii	"\0000\010\210\210H0\000\000\030   \021\016\000"
 1327      88483000 
 1327      00182020 
 1327      20110E00 
 1328 0140 0000C020 		.ascii	"\000\000\300 \020\370\000\000\000\007\004$$?$\000"
 1328      10F80000 
 1328      00070424 
 1328      243F2400 
 1329 0150 00F80888 		.ascii	"\000\370\010\210\210\010\010\000\000\031!  \021\016"
 1329      88080800 
 1329      00192120 
 1329      20110E
 1330 015f 00       		.ascii	"\000"
 1331 0160 00E01088 		.ascii	"\000\340\020\210\210\030\000\000\000\017\021  \021\016"
 1331      88180000 
 1331      000F1120 
 1331      20110E
 1332 016f 00       		.ascii	"\000"
 1333 0170 00380808 		.ascii	"\0008\010\010\3108\010\000\000\000\000?\000\000\000"
 1333      C8380800 
 1333      0000003F 
 1333      000000
 1334 017f 00       		.ascii	"\000"
 1335 0180 00708808 		.ascii	"\000p\210\010\010\210p\000\000\034\"!!\"\034\000"
 1335      08887000 
 1335      001C2221 
 1335      21221C00 
 1336 0190 00E01008 		.ascii	"\000\340\020\010\010\020\340\000\000\0001\"\"\021\017"
 1336      0810E000 
 1336      00003122 
 1336      22110F
 1337 019f 00       		.ascii	"\000"
 1338 01a0 000000C0 		.ascii	"\000\000\000\300\300\000\000\000\000\000\00000\000\000"
 1338      C0000000 
 1338      00000030 
 1338      300000
 1339 01af 00       		.ascii	"\000"
 1340 01b0 00000080 		.ascii	"\000\000\000\200\000\000\000\000\000\000\200`\000\000"
 1340      00000000 
 1340      00008060 
 1340      0000
 1341 01be 0000     		.ascii	"\000\000"
 1342 01c0 00008040 		.ascii	"\000\000\200@ \020\010\000\000\001\002\004\010\020 "
 1342      20100800 
 1342      00010204 
 1342      081020
 1343 01cf 00       		.ascii	"\000"
 1344 01d0 40404040 		.ascii	"@@@@@@@\000\004\004\004\004\004\004\004\000"
 1344      40404000 
 1344      04040404 
 1344      04040400 
 1345 01e0 00081020 		.ascii	"\000\010\020 @\200\000\000\000 \020\010\004\002\001"
 1345      40800000 
 1345      00201008 
 1345      040201
 1346 01ef 00       		.ascii	"\000"
ARM GAS  C:\Users\26927\AppData\Local\Temp\cck5sGic.s 			page 33


 1347 01f0 00704808 		.ascii	"\000pH\010\010\010\360\000\000\000\00006\001\000\000"
 1347      0808F000 
 1347      00000030 
 1347      36010000 
 1348 0200 C030C828 		.ascii	"\3000\310(\350\020\340\000\007\030'$#\024\013\000"
 1348      E810E000 
 1348      07182724 
 1348      23140B00 
 1349 0210 0000C038 		.ascii	"\000\000\3008\340\000\000\000 <#\002\002'8 "
 1349      E0000000 
 1349      203C2302 
 1349      02273820 
 1350 0220 08F88888 		.ascii	"\010\370\210\210\210p\000\000 ?   \021\016\000"
 1350      88700000 
 1350      203F2020 
 1350      20110E00 
 1351 0230 C0300808 		.ascii	"\3000\010\010\010\0108\000\007\030   \020\010\000"
 1351      08083800 
 1351      07182020 
 1351      20100800 
 1352 0240 08F80808 		.ascii	"\010\370\010\010\010\020\340\000 ?   \020\017\000"
 1352      0810E000 
 1352      203F2020 
 1352      20100F00 
 1353 0250 08F88888 		.ascii	"\010\370\210\210\350\010\020\000 ?  # \030\000"
 1353      E8081000 
 1353      203F2020 
 1353      23201800 
 1354 0260 08F88888 		.ascii	"\010\370\210\210\350\010\020\000 ? \000\003\000\000"
 1354      E8081000 
 1354      203F2000 
 1354      030000
 1355 026f 00       		.ascii	"\000"
 1356 0270 C0300808 		.ascii	"\3000\010\010\0108\000\000\007\030  \"\036\002\000"
 1356      08380000 
 1356      07182020 
 1356      221E0200 
 1357 0280 08F80800 		.ascii	"\010\370\010\000\000\010\370\010 ?!\001\001!? "
 1357      0008F808 
 1357      203F2101 
 1357      01213F20 
 1358 0290 000808F8 		.ascii	"\000\010\010\370\010\010\000\000\000  ?  \000\000"
 1358      08080000 
 1358      0020203F 
 1358      20200000 
 1359 02a0 00000808 		.ascii	"\000\000\010\010\370\010\010\000\300\200\200\200\177"
 1359      F8080800 
 1359      C0808080 
 1359      7F
 1360 02ad 000000   		.ascii	"\000\000\000"
 1361 02b0 08F888C0 		.ascii	"\010\370\210\300(\030\010\000 ? \001&8 \000"
 1361      28180800 
 1361      203F2001 
 1361      26382000 
 1362 02c0 08F80800 		.ascii	"\010\370\010\000\000\000\000\000 ?    0\000"
 1362      00000000 
 1362      203F2020 
ARM GAS  C:\Users\26927\AppData\Local\Temp\cck5sGic.s 			page 34


 1362      20203000 
 1363 02d0 08F8F800 		.ascii	"\010\370\370\000\370\370\010\000 ?\000?\000? \000"
 1363      F8F80800 
 1363      203F003F 
 1363      003F2000 
 1364 02e0 08F830C0 		.ascii	"\010\3700\300\000\010\370\010 ? \000\007\030?\000"
 1364      0008F808 
 1364      203F2000 
 1364      07183F00 
 1365 02f0 E0100808 		.ascii	"\340\020\010\010\010\020\340\000\017\020   \020\017"
 1365      0810E000 
 1365      0F102020 
 1365      20100F
 1366 02ff 00       		.ascii	"\000"
 1367 0300 08F80808 		.ascii	"\010\370\010\010\010\010\360\000 ?!\001\001\001\000"
 1367      0808F000 
 1367      203F2101 
 1367      010100
 1368 030f 00       		.ascii	"\000"
 1369 0310 E0100808 		.ascii	"\340\020\010\010\010\020\340\000\017\030$$8PO\000"
 1369      0810E000 
 1369      0F182424 
 1369      38504F00 
 1370 0320 08F88888 		.ascii	"\010\370\210\210\210\210p\000 ? \000\003\0140 "
 1370      88887000 
 1370      203F2000 
 1370      030C3020 
 1371 0330 00708808 		.ascii	"\000p\210\010\010\0108\000\0008 !!\"\034\000"
 1371      08083800 
 1371      00382021 
 1371      21221C00 
 1372 0340 180808F8 		.ascii	"\030\010\010\370\010\010\030\000\000\000 ? \000\000"
 1372      08081800 
 1372      0000203F 
 1372      200000
 1373 034f 00       		.ascii	"\000"
 1374 0350 08F80800 		.ascii	"\010\370\010\000\000\010\370\010\000\037    \037\000"
 1374      0008F808 
 1374      001F2020 
 1374      20201F00 
 1375 0360 08788800 		.ascii	"\010x\210\000\000\3108\010\000\000\0078\016\001\000"
 1375      00C83808 
 1375      00000738 
 1375      0E0100
 1376 036f 00       		.ascii	"\000"
 1377 0370 F80800F8 		.ascii	"\370\010\000\370\000\010\370\000\003<\007\000\007<\003"
 1377      0008F800 
 1377      033C0700 
 1377      073C03
 1378 037f 00       		.ascii	"\000"
 1379 0380 08186880 		.ascii	"\010\030h\200\200h\030\010 0,\003\003,0 "
 1379      80681808 
 1379      20302C03 
 1379      032C3020 
 1380 0390 0838C800 		.ascii	"\0108\310\000\3108\010\000\000\000 ? \000\000\000"
 1380      C8380800 
 1380      0000203F 
ARM GAS  C:\Users\26927\AppData\Local\Temp\cck5sGic.s 			page 35


 1380      20000000 
 1381 03a0 10080808 		.ascii	"\020\010\010\010\3108\010\000 8&!  \030\000"
 1381      C8380800 
 1381      20382621 
 1381      20201800 
 1382 03b0 000000FE 		.ascii	"\000\000\000\376\002\002\002\000\000\000\000\177@@@"
 1382      02020200 
 1382      0000007F 
 1382      404040
 1383 03bf 00       		.ascii	"\000"
 1384 03c0 000C30C0 		.ascii	"\000\0140\300\000\000\000\000\000\000\000\001\0068\300"
 1384      00000000 
 1384      00000001 
 1384      0638C0
 1385 03cf 00       		.ascii	"\000"
 1386 03d0 00020202 		.ascii	"\000\002\002\002\376\000\000\000\000@@@\177\000\000"
 1386      FE000000 
 1386      00404040 
 1386      7F0000
 1387 03df 00       		.ascii	"\000"
 1388 03e0 00000402 		.ascii	"\000\000\004\002\002\002\004\000\000\000\000\000\000"
 1388      02020400 
 1388      00000000 
 1388      00
 1389 03ed 000000   		.ascii	"\000\000\000"
 1390 03f0 00000000 		.ascii	"\000\000\000\000\000\000\000\000\200\200\200\200\200"
 1390      00000000 
 1390      80808080 
 1390      80
 1391 03fd 808080   		.ascii	"\200\200\200"
 1392 0400 00020204 		.ascii	"\000\002\002\004\000\000\000\000\000\000\000\000\000"
 1392      00000000 
 1392      00000000 
 1392      00
 1393 040d 000000   		.ascii	"\000\000\000"
 1394 0410 00008080 		.ascii	"\000\000\200\200\200\200\000\000\000\031$\"\"\"? "
 1394      80800000 
 1394      00192422 
 1394      22223F20 
 1395 0420 08F80080 		.ascii	"\010\370\000\200\200\000\000\000\000?\021  \021\016"
 1395      80000000 
 1395      003F1120 
 1395      20110E
 1396 042f 00       		.ascii	"\000"
 1397 0430 00000080 		.ascii	"\000\000\000\200\200\200\000\000\000\016\021   \021"
 1397      80800000 
 1397      000E1120 
 1397      202011
 1398 043f 00       		.ascii	"\000"
 1399 0440 00000080 		.ascii	"\000\000\000\200\200\210\370\000\000\016\021  \020?"
 1399      8088F800 
 1399      000E1120 
 1399      20103F
 1400 044f 20       		.ascii	" "
 1401 0450 00008080 		.ascii	"\000\000\200\200\200\200\000\000\000\037\"\"\"\"\023"
 1401      80800000 
 1401      001F2222 
ARM GAS  C:\Users\26927\AppData\Local\Temp\cck5sGic.s 			page 36


 1401      222213
 1402 045f 00       		.ascii	"\000"
 1403 0460 008080F0 		.ascii	"\000\200\200\360\210\210\210\030\000  ?  \000\000"
 1403      88888818 
 1403      0020203F 
 1403      20200000 
 1404 0470 00008080 		.ascii	"\000\000\200\200\200\200\200\000\000k\224\224\224\223"
 1404      80808000 
 1404      006B9494 
 1404      9493
 1405 047e 6000     		.ascii	"`\000"
 1406 0480 08F80080 		.ascii	"\010\370\000\200\200\200\000\000 ?!\000\000 ? "
 1406      80800000 
 1406      203F2100 
 1406      00203F20 
 1407 0490 00809898 		.ascii	"\000\200\230\230\000\000\000\000\000  ?  \000\000"
 1407      00000000 
 1407      0020203F 
 1407      20200000 
 1408 04a0 00000080 		.ascii	"\000\000\000\200\230\230\000\000\000\300\200\200\200"
 1408      98980000 
 1408      00C08080 
 1408      80
 1409 04ad 7F0000   		.ascii	"\177\000\000"
 1410 04b0 08F80000 		.ascii	"\010\370\000\000\200\200\200\000 ?$\002-0 \000"
 1410      80808000 
 1410      203F2402 
 1410      2D302000 
 1411 04c0 000808F8 		.ascii	"\000\010\010\370\000\000\000\000\000  ?  \000\000"
 1411      00000000 
 1411      0020203F 
 1411      20200000 
 1412 04d0 80808080 		.ascii	"\200\200\200\200\200\200\200\000 ? \000? \000?"
 1412      80808000 
 1412      203F2000 
 1412      3F20003F 
 1413 04e0 80800080 		.ascii	"\200\200\000\200\200\200\000\000 ?!\000\000 ? "
 1413      80800000 
 1413      203F2100 
 1413      00203F20 
 1414 04f0 00008080 		.ascii	"\000\000\200\200\200\200\000\000\000\037    \037\000"
 1414      80800000 
 1414      001F2020 
 1414      20201F00 
 1415 0500 80800080 		.ascii	"\200\200\000\200\200\000\000\000\200\377\241  \021\016"
 1415      80000000 
 1415      80FFA120 
 1415      20110E
 1416 050f 00       		.ascii	"\000"
 1417 0510 00000080 		.ascii	"\000\000\000\200\200\200\200\000\000\016\021  \240\377"
 1417      80808000 
 1417      000E1120 
 1417      20A0FF
 1418 051f 80       		.ascii	"\200"
 1419 0520 80808000 		.ascii	"\200\200\200\000\200\200\200\000  ?! \000\001\000"
 1419      80808000 
 1419      20203F21 
ARM GAS  C:\Users\26927\AppData\Local\Temp\cck5sGic.s 			page 37


 1419      20000100 
 1420 0530 00008080 		.ascii	"\000\000\200\200\200\200\200\000\0003$$$$\031\000"
 1420      80808000 
 1420      00332424 
 1420      24241900 
 1421 0540 008080E0 		.ascii	"\000\200\200\340\200\200\000\000\000\000\000\037  \000"
 1421      80800000 
 1421      0000001F 
 1421      202000
 1422 054f 00       		.ascii	"\000"
 1423 0550 80800000 		.ascii	"\200\200\000\000\000\200\200\000\000\037   \020? "
 1423      00808000 
 1423      001F2020 
 1423      20103F20 
 1424 0560 80808000 		.ascii	"\200\200\200\000\000\200\200\200\000\001\0160\010\006"
 1424      00808080 
 1424      00010E30 
 1424      0806
 1425 056e 0100     		.ascii	"\001\000"
 1426 0570 80800080 		.ascii	"\200\200\000\200\000\200\200\200\0170\014\003\0140\017"
 1426      00808080 
 1426      0F300C03 
 1426      0C300F
 1427 057f 00       		.ascii	"\000"
 1428 0580 00808000 		.ascii	"\000\200\200\000\200\200\200\000\000 1.\0161 \000"
 1428      80808000 
 1428      0020312E 
 1428      0E312000 
 1429 0590 80808000 		.ascii	"\200\200\200\000\000\200\200\200\200\201\216p\030\006"
 1429      00808080 
 1429      80818E70 
 1429      1806
 1430 059e 0100     		.ascii	"\001\000"
 1431 05a0 00808080 		.ascii	"\000\200\200\200\200\200\200\000\000!0,\"!0\000"
 1431      80808000 
 1431      0021302C 
 1431      22213000 
 1432 05b0 00000000 		.ascii	"\000\000\000\000\200|\002\002\000\000\000\000\000?@"
 1432      807C0202 
 1432      00000000 
 1432      003F40
 1433 05bf 40       		.ascii	"@"
 1434 05c0 00000000 		.ascii	"\000\000\000\000\377\000\000\000\000\000\000\000\377"
 1434      FF000000 
 1434      00000000 
 1434      FF
 1435 05cd 000000   		.ascii	"\000\000\000"
 1436 05d0 0002027C 		.ascii	"\000\002\002|\200\000\000\000\000@@?\000\000\000\000"
 1436      80000000 
 1436      0040403F 
 1436      00000000 
 1437 05e0 00060101 		.ascii	"\000\006\001\001\002\002\004\004\000\000\000\000\000"
 1437      02020404 
 1437      00000000 
 1437      00
 1438 05ed 000000   		.ascii	"\000\000\000"
 1439              		.text
ARM GAS  C:\Users\26927\AppData\Local\Temp\cck5sGic.s 			page 38


 1440              	.Letext0:
 1441              		.file 2 "d:\\soft\\gcc_arm\\gcc-arm-none-eabi-10.3-2021.10\\arm-none-eabi\\include\\machine\\_defa
 1442              		.file 3 "d:\\soft\\gcc_arm\\gcc-arm-none-eabi-10.3-2021.10\\arm-none-eabi\\include\\sys\\_stdint.h
 1443              		.file 4 "Drivers/CMSIS/Device/ST/STM32F1xx/Include/stm32f103xb.h"
 1444              		.file 5 "Drivers/STM32F1xx_HAL_Driver/Inc/stm32f1xx_hal_gpio.h"
 1445              		.file 6 "Drivers/My_Drivers\\Include/driver_oled_font.h"
ARM GAS  C:\Users\26927\AppData\Local\Temp\cck5sGic.s 			page 39

